
DJ_CTRL.elf:     file format elf32-avr

Sections:
Idx Name          Size      VMA       LMA       File off  Algn
  0 .text         00001e22  00000000  00000000  00000094  2**1
                  CONTENTS, ALLOC, LOAD, READONLY, CODE
  1 .data         0000000e  00800060  00001e22  00001eb6  2**0
                  CONTENTS, ALLOC, LOAD, DATA
  2 .bss          0000017d  0080006e  0080006e  00001ec4  2**0
                  ALLOC
  3 .debug_aranges 00000080  00000000  00000000  00001ec4  2**0
                  CONTENTS, READONLY, DEBUGGING
  4 .debug_pubnames 00000329  00000000  00000000  00001f44  2**0
                  CONTENTS, READONLY, DEBUGGING
  5 .debug_info   000016c7  00000000  00000000  0000226d  2**0
                  CONTENTS, READONLY, DEBUGGING
  6 .debug_abbrev 000005d2  00000000  00000000  00003934  2**0
                  CONTENTS, READONLY, DEBUGGING
  7 .debug_line   000012b4  00000000  00000000  00003f06  2**0
                  CONTENTS, READONLY, DEBUGGING
  8 .debug_frame  000001c0  00000000  00000000  000051bc  2**2
                  CONTENTS, READONLY, DEBUGGING
  9 .debug_str    000003c4  00000000  00000000  0000537c  2**0
                  CONTENTS, READONLY, DEBUGGING
 10 .debug_loc    00000e14  00000000  00000000  00005740  2**0
                  CONTENTS, READONLY, DEBUGGING
 11 .debug_ranges 00000150  00000000  00000000  00006554  2**0
                  CONTENTS, READONLY, DEBUGGING

Disassembly of section .text:

00000000 <__vectors>:
       0:	0c 94 07 01 	jmp	0x20e	; 0x20e <__ctors_end>
       4:	0c 94 24 01 	jmp	0x248	; 0x248 <__bad_interrupt>
       8:	0c 94 fd 09 	jmp	0x13fa	; 0x13fa <__vector_2>
       c:	0c 94 1f 0a 	jmp	0x143e	; 0x143e <__vector_3>
      10:	0c 94 24 01 	jmp	0x248	; 0x248 <__bad_interrupt>
      14:	0c 94 24 01 	jmp	0x248	; 0x248 <__bad_interrupt>
      18:	0c 94 24 01 	jmp	0x248	; 0x248 <__bad_interrupt>
      1c:	0c 94 24 01 	jmp	0x248	; 0x248 <__bad_interrupt>
      20:	0c 94 24 01 	jmp	0x248	; 0x248 <__bad_interrupt>
      24:	0c 94 24 01 	jmp	0x248	; 0x248 <__bad_interrupt>
      28:	0c 94 41 0a 	jmp	0x1482	; 0x1482 <__vector_10>
      2c:	0c 94 24 01 	jmp	0x248	; 0x248 <__bad_interrupt>
      30:	0c 94 24 01 	jmp	0x248	; 0x248 <__bad_interrupt>
      34:	0c 94 bc 03 	jmp	0x778	; 0x778 <__vector_13>
      38:	0c 94 14 04 	jmp	0x828	; 0x828 <__vector_14>
      3c:	0c 94 24 01 	jmp	0x248	; 0x248 <__bad_interrupt>
      40:	0c 94 73 08 	jmp	0x10e6	; 0x10e6 <__vector_16>
      44:	0c 94 24 01 	jmp	0x248	; 0x248 <__bad_interrupt>
      48:	0c 94 24 01 	jmp	0x248	; 0x248 <__bad_interrupt>
      4c:	0c 94 24 01 	jmp	0x248	; 0x248 <__bad_interrupt>
      50:	0c 94 24 01 	jmp	0x248	; 0x248 <__bad_interrupt>

00000054 <BL>:
      54:	0f 32 32 32 32 18 17 16 1d 01 20 1f 1e 08 07 32     .2222..... ....2
      64:	32 32 32 0e 32 32 32 32 0d 09 0a 32 28 27 26 21     222.2222...2('&!
      74:	2c 32 32 32 32 1c 13 12 11 01 1b 1a 19 02 01 32     ,2222..........2
      84:	32 32 32 2b 32 32 32 32 30 31 29 32 23 24 25 0b     222+222201)2#$%.
      94:	32 32 0c 32 06 03 05 04 10 15 14 22 2f 2e 2d 2a     22.2......."/.-*
      a4:	32 32 32 32 32 32 32 32 32 32 32 32 32 32 32 32     2222222222222222

000000b4 <display>:
      b4:	f3 5b a2 dd 20 df 20 96 20 5b 00 82 00 5b 00 96     .[.. . . [...[..
      c4:	00 df 82 dd d3 5b                                   .....[

000000ca <RGBmass>:
      ca:	00 00 ff ff ff ff 00 00 00 32 78 96 c8 ff 00 ff     .........2x.....
      da:	64 00 00 c8 00                                      d....

000000df <buttonsA>:
      df:	02 02 01 01 06 01 02 01 06 02 02 00 00 00 02 06     ................
      ef:	01 01 01 01 02 01 01 01 06 00 00 00 00 00 00 00     ................
      ff:	06 01 01 06 02 06 06 06 06 06 00 00 06 06 06 00     ................
     10f:	01 01 01 01 02 01 02 01 02 02 00 00 00 00 00 00     ................
     11f:	01 01 01 01 02 01 01 01 02 00 00 00 00 00 00 00     ................

0000012f <buttonsD>:
     12f:	0d 0c 1a 18 00 19 0e 1c 00 09 0b 1a 18 19 0a 00     ................
     13f:	03 0e 0d 02 04 01 04 1d 00 01 0d 0e 03 04 02 1d     ................
     14f:	00 12 11 00 05 00 00 00 00 00 11 12 00 00 00 1c     ................
     15f:	13 0f 08 07 07 06 0f 1e 10 08 0f 05 06 07 13 1e     ................
     16f:	0c 0b 0a 09 06 05 10 1f 02 10 0a 0b 0c 08 09 1f     ................

0000017f <encMassA>:
     17f:	02 02 02 02 02 02 02 02 00 01                       ..........

00000189 <encMassD>:
     189:	0e 09 0d 0c 05 03 06 00 08 08                       ..........

00000193 <encA>:
     193:	00 00 01 01 02                                      .....

00000198 <encD>:
     198:	08 09 08 09 0b                                      .....

0000019d <barMass>:
     19d:	00 02 06 0e 1e 3e 7e fe ff                          .....>~..

000001a6 <levelbarMass>:
     1a6:	00 01 03 43 53 57 d7 df ff 40 50 ff 00 00 00 00     ...CSW...@P.....
	...

000001c4 <displayMass>:
     1c4:	cf 82 5b d3 96 d5 dd 83 df d7 9f dc 4d da 5d 1d     ..[.........M.].
     1d4:	9e 4c 98 1f 5c ce 8f                                .L..\..

000001db <faderMass>:
     1db:	01 05 02 03 02 05 02 06 00 06 02 04 01 06 00 05     ................
     1eb:	02 01 00 02 01 04 00 04 02 02 00 03 00 00 00 01     ................
     1fb:	01 02 02 07 02 09 02 0a 02 08 01 00 01 03 01 01     ................
     20b:	02 00 00                                            ...

0000020e <__ctors_end>:
     20e:	11 24       	eor	r1, r1
     210:	1f be       	out	0x3f, r1	; 63
     212:	cf e5       	ldi	r28, 0x5F	; 95
     214:	d8 e0       	ldi	r29, 0x08	; 8
     216:	de bf       	out	0x3e, r29	; 62
     218:	cd bf       	out	0x3d, r28	; 61

0000021a <__do_copy_data>:
     21a:	10 e0       	ldi	r17, 0x00	; 0
     21c:	a0 e6       	ldi	r26, 0x60	; 96
     21e:	b0 e0       	ldi	r27, 0x00	; 0
     220:	e2 e2       	ldi	r30, 0x22	; 34
     222:	fe e1       	ldi	r31, 0x1E	; 30
     224:	02 c0       	rjmp	.+4      	; 0x22a <.do_copy_data_start>

00000226 <.do_copy_data_loop>:
     226:	05 90       	lpm	r0, Z+
     228:	0d 92       	st	X+, r0

0000022a <.do_copy_data_start>:
     22a:	ae 36       	cpi	r26, 0x6E	; 110
     22c:	b1 07       	cpc	r27, r17
     22e:	d9 f7       	brne	.-10     	; 0x226 <.do_copy_data_loop>

00000230 <__do_clear_bss>:
     230:	11 e0       	ldi	r17, 0x01	; 1
     232:	ae e6       	ldi	r26, 0x6E	; 110
     234:	b0 e0       	ldi	r27, 0x00	; 0
     236:	01 c0       	rjmp	.+2      	; 0x23a <.do_clear_bss_start>

00000238 <.do_clear_bss_loop>:
     238:	1d 92       	st	X+, r1

0000023a <.do_clear_bss_start>:
     23a:	ab 3e       	cpi	r26, 0xEB	; 235
     23c:	b1 07       	cpc	r27, r17
     23e:	e1 f7       	brne	.-8      	; 0x238 <.do_clear_bss_loop>
     240:	0e 94 f0 05 	call	0xbe0	; 0xbe0 <main>
     244:	0c 94 0f 0f 	jmp	0x1e1e	; 0x1e1e <_exit>

00000248 <__bad_interrupt>:
     248:	0c 94 00 00 	jmp	0	; 0x0 <__vectors>

0000024c <UARTProcessOut>:
/*******************************************************************************
* Function Name  : UARTProcessOut
* Description    : Add message from circular buffer to Midi out interface
*******************************************************************************/
void UARTProcessOut()
{
     24c:	cf 93       	push	r28
     24e:	df 93       	push	r29
	if( cbOutStart != cbOutEnd )
     250:	90 91 6e 00 	lds	r25, 0x006E
     254:	80 91 6f 00 	lds	r24, 0x006F
     258:	98 17       	cp	r25, r24
     25a:	71 f1       	breq	.+92     	; 0x2b8 <UARTProcessOut+0x6c>
	{	
		if(TxFlag == 0) //if 3 bytes were sent
     25c:	80 91 72 00 	lds	r24, 0x0072
     260:	88 23       	and	r24, r24
     262:	51 f5       	brne	.+84     	; 0x2b8 <UARTProcessOut+0x6c>
		{
    		if(++cbOutStart == cbOut_MAX) cbOutStart = 0;
     264:	89 2f       	mov	r24, r25
     266:	8f 5f       	subi	r24, 0xFF	; 255
     268:	80 93 6e 00 	sts	0x006E, r24
     26c:	83 32       	cpi	r24, 0x23	; 35
     26e:	11 f4       	brne	.+4      	; 0x274 <UARTProcessOut+0x28>
     270:	10 92 6e 00 	sts	0x006E, r1
    
    		midiMessage[0] = cbOut[cbOutStart].channel;
     274:	80 91 6e 00 	lds	r24, 0x006E
     278:	90 e0       	ldi	r25, 0x00	; 0
     27a:	dc 01       	movw	r26, r24
     27c:	aa 0f       	add	r26, r26
     27e:	bb 1f       	adc	r27, r27
     280:	a8 0f       	add	r26, r24
     282:	b9 1f       	adc	r27, r25
     284:	af 5e       	subi	r26, 0xEF	; 239
     286:	be 4f       	sbci	r27, 0xFE	; 254
     288:	ed 01       	movw	r28, r26
     28a:	49 91       	ld	r20, Y+
     28c:	2e e0       	ldi	r18, 0x0E	; 14
     28e:	31 e0       	ldi	r19, 0x01	; 1
     290:	f9 01       	movw	r30, r18
     292:	41 93       	st	Z+, r20
    		midiMessage[1] = cbOut[cbOutStart].control;
     294:	88 81       	ld	r24, Y
     296:	80 83       	st	Z, r24
    		midiMessage[2] = cbOut[cbOutStart].value;
     298:	12 96       	adiw	r26, 0x02	; 2
     29a:	8c 91       	ld	r24, X
     29c:	f9 01       	movw	r30, r18
     29e:	32 96       	adiw	r30, 0x02	; 2
     2a0:	80 83       	st	Z, r24
    		TxFlag = 1;
     2a2:	81 e0       	ldi	r24, 0x01	; 1
     2a4:	80 93 72 00 	sts	0x0072, r24

    		UDR = midiMessage[0];
     2a8:	f9 01       	movw	r30, r18
     2aa:	80 81       	ld	r24, Z
     2ac:	8c b9       	out	0x0c, r24	; 12
        	UCSRB |= (1<<UDRIE);
     2ae:	ea e2       	ldi	r30, 0x2A	; 42
     2b0:	f0 e0       	ldi	r31, 0x00	; 0
     2b2:	80 81       	ld	r24, Z
     2b4:	80 62       	ori	r24, 0x20	; 32
     2b6:	80 83       	st	Z, r24
		}			
	}
}
     2b8:	df 91       	pop	r29
     2ba:	cf 91       	pop	r28
     2bc:	08 95       	ret

000002be <MidiAddMsg>:
* Function Name  : MidiAddMsg
* Description    : Add message to the Midi out circular buffer
* Input			 : Midi message type, channel and value
*******************************************************************************/
void MidiAddMsg(uint8_t channel, uint8_t control, uint8_t value)
{
     2be:	58 2f       	mov	r21, r24
	uint8_t temp = channel & 0xF0;	//remember the ADRESS of midi message

	if(control == 19)	//if we press 1 of 2 deck buttons->change deck
     2c0:	63 31       	cpi	r22, 0x13	; 19
     2c2:	09 f0       	breq	.+2      	; 0x2c6 <MidiAddMsg+0x8>
     2c4:	97 c1       	rjmp	.+814    	; 0x5f4 <MidiAddMsg+0x336>
	{
		if(channel == 0x90) 
     2c6:	80 39       	cpi	r24, 0x90	; 144
     2c8:	09 f0       	breq	.+2      	; 0x2cc <MidiAddMsg+0xe>
     2ca:	c8 c0       	rjmp	.+400    	; 0x45c <MidiAddMsg+0x19e>
		{
			if(DDLeft==1) 	
     2cc:	80 91 73 00 	lds	r24, 0x0073
     2d0:	81 30       	cpi	r24, 0x01	; 1
     2d2:	09 f0       	breq	.+2      	; 0x2d6 <MidiAddMsg+0x18>
     2d4:	61 c0       	rjmp	.+194    	; 0x398 <MidiAddMsg+0xda>
			{
				DDLeft = 0; 
     2d6:	10 92 73 00 	sts	0x0073, r1

				BitReset(UCSRB, RXCIE);
     2da:	ea e2       	ldi	r30, 0x2A	; 42
     2dc:	f0 e0       	ldi	r31, 0x00	; 0
     2de:	80 81       	ld	r24, Z
     2e0:	8f 77       	andi	r24, 0x7F	; 127
     2e2:	80 83       	st	Z, r24
				cbIn[cbInEnd].channel	= 0x90; 
     2e4:	20 91 71 00 	lds	r18, 0x0071
     2e8:	82 2f       	mov	r24, r18
     2ea:	90 e0       	ldi	r25, 0x00	; 0
     2ec:	fc 01       	movw	r30, r24
     2ee:	ee 0f       	add	r30, r30
     2f0:	ff 1f       	adc	r31, r31
     2f2:	e8 0f       	add	r30, r24
     2f4:	f9 1f       	adc	r31, r25
     2f6:	e6 58       	subi	r30, 0x86	; 134
     2f8:	fe 4f       	sbci	r31, 0xFE	; 254
     2fa:	df 01       	movw	r26, r30
     2fc:	80 e9       	ldi	r24, 0x90	; 144
     2fe:	8d 93       	st	X+, r24
				cbIn[cbInEnd].control	= 0; 
     300:	1c 92       	st	X, r1
				cbIn[cbInEnd].value		= MIDI_NULL; 
     302:	32 96       	adiw	r30, 0x02	; 2
     304:	10 82       	st	Z, r1
				if(++cbInEnd == cbIn_MAX) cbInEnd = 0;
     306:	2f 5f       	subi	r18, 0xFF	; 255
     308:	23 32       	cpi	r18, 0x23	; 35
     30a:	69 f4       	brne	.+26     	; 0x326 <MidiAddMsg+0x68>

				cbIn[cbInEnd].channel	= 0x90; 
     30c:	aa e7       	ldi	r26, 0x7A	; 122
     30e:	b1 e0       	ldi	r27, 0x01	; 1
     310:	fd 01       	movw	r30, r26
     312:	81 93       	st	Z+, r24
				cbIn[cbInEnd].control	= 19; 
     314:	83 e1       	ldi	r24, 0x13	; 19
     316:	80 83       	st	Z, r24
				cbIn[cbInEnd].value		= MIDI_MAX; 
     318:	12 96       	adiw	r26, 0x02	; 2
     31a:	8f e7       	ldi	r24, 0x7F	; 127
     31c:	8c 93       	st	X, r24
				if(++cbInEnd == cbIn_MAX) cbInEnd = 0;
     31e:	81 e0       	ldi	r24, 0x01	; 1
     320:	80 93 71 00 	sts	0x0071, r24
     324:	19 c0       	rjmp	.+50     	; 0x358 <MidiAddMsg+0x9a>
				cbIn[cbInEnd].channel	= 0x90; 
				cbIn[cbInEnd].control	= 0; 
				cbIn[cbInEnd].value		= MIDI_NULL; 
				if(++cbInEnd == cbIn_MAX) cbInEnd = 0;

				cbIn[cbInEnd].channel	= 0x90; 
     326:	82 2f       	mov	r24, r18
     328:	90 e0       	ldi	r25, 0x00	; 0
     32a:	fc 01       	movw	r30, r24
     32c:	ee 0f       	add	r30, r30
     32e:	ff 1f       	adc	r31, r31
     330:	e8 0f       	add	r30, r24
     332:	f9 1f       	adc	r31, r25
     334:	e6 58       	subi	r30, 0x86	; 134
     336:	fe 4f       	sbci	r31, 0xFE	; 254
     338:	df 01       	movw	r26, r30
     33a:	80 e9       	ldi	r24, 0x90	; 144
     33c:	8d 93       	st	X+, r24
				cbIn[cbInEnd].control	= 19; 
     33e:	83 e1       	ldi	r24, 0x13	; 19
     340:	8c 93       	st	X, r24
				cbIn[cbInEnd].value		= MIDI_MAX; 
     342:	32 96       	adiw	r30, 0x02	; 2
     344:	8f e7       	ldi	r24, 0x7F	; 127
     346:	80 83       	st	Z, r24
				if(++cbInEnd == cbIn_MAX) cbInEnd = 0;
     348:	82 2f       	mov	r24, r18
     34a:	8f 5f       	subi	r24, 0xFF	; 255
     34c:	80 93 71 00 	sts	0x0071, r24
     350:	83 32       	cpi	r24, 0x23	; 35
     352:	11 f4       	brne	.+4      	; 0x358 <MidiAddMsg+0x9a>
     354:	10 92 71 00 	sts	0x0071, r1
				BitSet(UCSRB, RXCIE);
     358:	ea e2       	ldi	r30, 0x2A	; 42
     35a:	f0 e0       	ldi	r31, 0x00	; 0
     35c:	80 81       	ld	r24, Z
     35e:	80 68       	ori	r24, 0x80	; 128
     360:	80 83       	st	Z, r24

				if(++cbOutEnd == cbOut_MAX) cbOutEnd = 0;
     362:	80 91 6f 00 	lds	r24, 0x006F
     366:	8f 5f       	subi	r24, 0xFF	; 255
     368:	80 93 6f 00 	sts	0x006F, r24
     36c:	83 32       	cpi	r24, 0x23	; 35
     36e:	11 f4       	brne	.+4      	; 0x374 <MidiAddMsg+0xb6>
     370:	10 92 6f 00 	sts	0x006F, r1
				cbOut[cbOutEnd].channel = 0x90;
     374:	80 91 6f 00 	lds	r24, 0x006F
     378:	90 e0       	ldi	r25, 0x00	; 0
     37a:	fc 01       	movw	r30, r24
     37c:	ee 0f       	add	r30, r30
     37e:	ff 1f       	adc	r31, r31
     380:	e8 0f       	add	r30, r24
     382:	f9 1f       	adc	r31, r25
     384:	ef 5e       	subi	r30, 0xEF	; 239
     386:	fe 4f       	sbci	r31, 0xFE	; 254
     388:	df 01       	movw	r26, r30
     38a:	80 e9       	ldi	r24, 0x90	; 144
     38c:	8d 93       	st	X+, r24
				cbOut[cbOutEnd].control = 19;
     38e:	83 e1       	ldi	r24, 0x13	; 19
     390:	8c 93       	st	X, r24
				cbOut[cbOutEnd].value 	= MIDI_NULL; 
     392:	32 96       	adiw	r30, 0x02	; 2
     394:	10 82       	st	Z, r1
     396:	62 c0       	rjmp	.+196    	; 0x45c <MidiAddMsg+0x19e>
			}
			else 		
			{
				DDLeft = 1;
     398:	81 e0       	ldi	r24, 0x01	; 1
     39a:	80 93 73 00 	sts	0x0073, r24

				BitReset(UCSRB, RXCIE);
     39e:	ea e2       	ldi	r30, 0x2A	; 42
     3a0:	f0 e0       	ldi	r31, 0x00	; 0
     3a2:	80 81       	ld	r24, Z
     3a4:	8f 77       	andi	r24, 0x7F	; 127
     3a6:	80 83       	st	Z, r24
				cbIn[cbInEnd].channel	= 0x90; 
     3a8:	20 91 71 00 	lds	r18, 0x0071
     3ac:	82 2f       	mov	r24, r18
     3ae:	90 e0       	ldi	r25, 0x00	; 0
     3b0:	fc 01       	movw	r30, r24
     3b2:	ee 0f       	add	r30, r30
     3b4:	ff 1f       	adc	r31, r31
     3b6:	e8 0f       	add	r30, r24
     3b8:	f9 1f       	adc	r31, r25
     3ba:	e6 58       	subi	r30, 0x86	; 134
     3bc:	fe 4f       	sbci	r31, 0xFE	; 254
     3be:	df 01       	movw	r26, r30
     3c0:	80 e9       	ldi	r24, 0x90	; 144
     3c2:	8d 93       	st	X+, r24
				cbIn[cbInEnd].control	= 0; 
     3c4:	1c 92       	st	X, r1
				cbIn[cbInEnd].value		= MIDI_MAX; 
     3c6:	32 96       	adiw	r30, 0x02	; 2
     3c8:	8f e7       	ldi	r24, 0x7F	; 127
     3ca:	80 83       	st	Z, r24
				if(++cbInEnd == cbIn_MAX) cbInEnd = 0;
     3cc:	2f 5f       	subi	r18, 0xFF	; 255
     3ce:	23 32       	cpi	r18, 0x23	; 35
     3d0:	69 f4       	brne	.+26     	; 0x3ec <MidiAddMsg+0x12e>

				cbIn[cbInEnd].channel	= 0x90; 
     3d2:	aa e7       	ldi	r26, 0x7A	; 122
     3d4:	b1 e0       	ldi	r27, 0x01	; 1
     3d6:	fd 01       	movw	r30, r26
     3d8:	80 e9       	ldi	r24, 0x90	; 144
     3da:	81 93       	st	Z+, r24
				cbIn[cbInEnd].control	= 19; 
     3dc:	83 e1       	ldi	r24, 0x13	; 19
     3de:	80 83       	st	Z, r24
				cbIn[cbInEnd].value		= MIDI_NULL; 
     3e0:	12 96       	adiw	r26, 0x02	; 2
     3e2:	1c 92       	st	X, r1
				if(++cbInEnd == cbIn_MAX) cbInEnd = 0;
     3e4:	81 e0       	ldi	r24, 0x01	; 1
     3e6:	80 93 71 00 	sts	0x0071, r24
     3ea:	18 c0       	rjmp	.+48     	; 0x41c <MidiAddMsg+0x15e>
				cbIn[cbInEnd].channel	= 0x90; 
				cbIn[cbInEnd].control	= 0; 
				cbIn[cbInEnd].value		= MIDI_MAX; 
				if(++cbInEnd == cbIn_MAX) cbInEnd = 0;

				cbIn[cbInEnd].channel	= 0x90; 
     3ec:	82 2f       	mov	r24, r18
     3ee:	90 e0       	ldi	r25, 0x00	; 0
     3f0:	fc 01       	movw	r30, r24
     3f2:	ee 0f       	add	r30, r30
     3f4:	ff 1f       	adc	r31, r31
     3f6:	e8 0f       	add	r30, r24
     3f8:	f9 1f       	adc	r31, r25
     3fa:	e6 58       	subi	r30, 0x86	; 134
     3fc:	fe 4f       	sbci	r31, 0xFE	; 254
     3fe:	df 01       	movw	r26, r30
     400:	80 e9       	ldi	r24, 0x90	; 144
     402:	8d 93       	st	X+, r24
				cbIn[cbInEnd].control	= 19; 
     404:	83 e1       	ldi	r24, 0x13	; 19
     406:	8c 93       	st	X, r24
				cbIn[cbInEnd].value		= MIDI_NULL; 
     408:	32 96       	adiw	r30, 0x02	; 2
     40a:	10 82       	st	Z, r1
				if(++cbInEnd == cbIn_MAX) cbInEnd = 0;
     40c:	82 2f       	mov	r24, r18
     40e:	8f 5f       	subi	r24, 0xFF	; 255
     410:	80 93 71 00 	sts	0x0071, r24
     414:	83 32       	cpi	r24, 0x23	; 35
     416:	11 f4       	brne	.+4      	; 0x41c <MidiAddMsg+0x15e>
     418:	10 92 71 00 	sts	0x0071, r1
				BitSet(UCSRB, RXCIE);
     41c:	ea e2       	ldi	r30, 0x2A	; 42
     41e:	f0 e0       	ldi	r31, 0x00	; 0
     420:	80 81       	ld	r24, Z
     422:	80 68       	ori	r24, 0x80	; 128
     424:	80 83       	st	Z, r24

				if(++cbOutEnd == cbOut_MAX) cbOutEnd = 0;
     426:	80 91 6f 00 	lds	r24, 0x006F
     42a:	8f 5f       	subi	r24, 0xFF	; 255
     42c:	80 93 6f 00 	sts	0x006F, r24
     430:	83 32       	cpi	r24, 0x23	; 35
     432:	11 f4       	brne	.+4      	; 0x438 <MidiAddMsg+0x17a>
     434:	10 92 6f 00 	sts	0x006F, r1
				cbOut[cbOutEnd].channel = 0x90;
     438:	80 91 6f 00 	lds	r24, 0x006F
     43c:	90 e0       	ldi	r25, 0x00	; 0
     43e:	fc 01       	movw	r30, r24
     440:	ee 0f       	add	r30, r30
     442:	ff 1f       	adc	r31, r31
     444:	e8 0f       	add	r30, r24
     446:	f9 1f       	adc	r31, r25
     448:	ef 5e       	subi	r30, 0xEF	; 239
     44a:	fe 4f       	sbci	r31, 0xFE	; 254
     44c:	df 01       	movw	r26, r30
     44e:	80 e9       	ldi	r24, 0x90	; 144
     450:	8d 93       	st	X+, r24
				cbOut[cbOutEnd].control = 19;
     452:	83 e1       	ldi	r24, 0x13	; 19
     454:	8c 93       	st	X, r24
				cbOut[cbOutEnd].value 	= MIDI_MAX;
     456:	32 96       	adiw	r30, 0x02	; 2
     458:	8f e7       	ldi	r24, 0x7F	; 127
     45a:	80 83       	st	Z, r24
			}
		}

		if(channel == 0x91)
     45c:	51 39       	cpi	r21, 0x91	; 145
     45e:	09 f0       	breq	.+2      	; 0x462 <MidiAddMsg+0x1a4>
     460:	01 c1       	rjmp	.+514    	; 0x664 <MidiAddMsg+0x3a6>
		{	
			if(DDRight==1) 
     462:	80 91 74 00 	lds	r24, 0x0074
     466:	81 30       	cpi	r24, 0x01	; 1
     468:	09 f0       	breq	.+2      	; 0x46c <MidiAddMsg+0x1ae>
     46a:	61 c0       	rjmp	.+194    	; 0x52e <MidiAddMsg+0x270>
			{
				DDRight = 0;
     46c:	10 92 74 00 	sts	0x0074, r1

				BitReset(UCSRB, RXCIE);
     470:	ea e2       	ldi	r30, 0x2A	; 42
     472:	f0 e0       	ldi	r31, 0x00	; 0
     474:	80 81       	ld	r24, Z
     476:	8f 77       	andi	r24, 0x7F	; 127
     478:	80 83       	st	Z, r24
				cbIn[cbInEnd].channel	= 0x91; 
     47a:	20 91 71 00 	lds	r18, 0x0071
     47e:	82 2f       	mov	r24, r18
     480:	90 e0       	ldi	r25, 0x00	; 0
     482:	fc 01       	movw	r30, r24
     484:	ee 0f       	add	r30, r30
     486:	ff 1f       	adc	r31, r31
     488:	e8 0f       	add	r30, r24
     48a:	f9 1f       	adc	r31, r25
     48c:	e6 58       	subi	r30, 0x86	; 134
     48e:	fe 4f       	sbci	r31, 0xFE	; 254
     490:	df 01       	movw	r26, r30
     492:	81 e9       	ldi	r24, 0x91	; 145
     494:	8d 93       	st	X+, r24
				cbIn[cbInEnd].control	= 0; 
     496:	1c 92       	st	X, r1
				cbIn[cbInEnd].value		= MIDI_NULL; 
     498:	32 96       	adiw	r30, 0x02	; 2
     49a:	10 82       	st	Z, r1
				if(++cbInEnd == cbIn_MAX) cbInEnd = 0;
     49c:	2f 5f       	subi	r18, 0xFF	; 255
     49e:	23 32       	cpi	r18, 0x23	; 35
     4a0:	69 f4       	brne	.+26     	; 0x4bc <MidiAddMsg+0x1fe>

				cbIn[cbInEnd].channel	= 0x91; 
     4a2:	aa e7       	ldi	r26, 0x7A	; 122
     4a4:	b1 e0       	ldi	r27, 0x01	; 1
     4a6:	fd 01       	movw	r30, r26
     4a8:	81 93       	st	Z+, r24
				cbIn[cbInEnd].control	= 19; 
     4aa:	83 e1       	ldi	r24, 0x13	; 19
     4ac:	80 83       	st	Z, r24
				cbIn[cbInEnd].value		= MIDI_MAX; 
     4ae:	12 96       	adiw	r26, 0x02	; 2
     4b0:	8f e7       	ldi	r24, 0x7F	; 127
     4b2:	8c 93       	st	X, r24
				if(++cbInEnd == cbIn_MAX) cbInEnd = 0;
     4b4:	81 e0       	ldi	r24, 0x01	; 1
     4b6:	80 93 71 00 	sts	0x0071, r24
     4ba:	19 c0       	rjmp	.+50     	; 0x4ee <MidiAddMsg+0x230>
				cbIn[cbInEnd].channel	= 0x91; 
				cbIn[cbInEnd].control	= 0; 
				cbIn[cbInEnd].value		= MIDI_NULL; 
				if(++cbInEnd == cbIn_MAX) cbInEnd = 0;

				cbIn[cbInEnd].channel	= 0x91; 
     4bc:	82 2f       	mov	r24, r18
     4be:	90 e0       	ldi	r25, 0x00	; 0
     4c0:	fc 01       	movw	r30, r24
     4c2:	ee 0f       	add	r30, r30
     4c4:	ff 1f       	adc	r31, r31
     4c6:	e8 0f       	add	r30, r24
     4c8:	f9 1f       	adc	r31, r25
     4ca:	e6 58       	subi	r30, 0x86	; 134
     4cc:	fe 4f       	sbci	r31, 0xFE	; 254
     4ce:	df 01       	movw	r26, r30
     4d0:	81 e9       	ldi	r24, 0x91	; 145
     4d2:	8d 93       	st	X+, r24
				cbIn[cbInEnd].control	= 19; 
     4d4:	83 e1       	ldi	r24, 0x13	; 19
     4d6:	8c 93       	st	X, r24
				cbIn[cbInEnd].value		= MIDI_MAX; 
     4d8:	32 96       	adiw	r30, 0x02	; 2
     4da:	8f e7       	ldi	r24, 0x7F	; 127
     4dc:	80 83       	st	Z, r24
				if(++cbInEnd == cbIn_MAX) cbInEnd = 0;
     4de:	82 2f       	mov	r24, r18
     4e0:	8f 5f       	subi	r24, 0xFF	; 255
     4e2:	80 93 71 00 	sts	0x0071, r24
     4e6:	83 32       	cpi	r24, 0x23	; 35
     4e8:	11 f4       	brne	.+4      	; 0x4ee <MidiAddMsg+0x230>
     4ea:	10 92 71 00 	sts	0x0071, r1
				BitSet(UCSRB, RXCIE);
     4ee:	ea e2       	ldi	r30, 0x2A	; 42
     4f0:	f0 e0       	ldi	r31, 0x00	; 0
     4f2:	80 81       	ld	r24, Z
     4f4:	80 68       	ori	r24, 0x80	; 128
     4f6:	80 83       	st	Z, r24

				if(++cbOutEnd == cbOut_MAX) cbOutEnd = 0;
     4f8:	80 91 6f 00 	lds	r24, 0x006F
     4fc:	8f 5f       	subi	r24, 0xFF	; 255
     4fe:	80 93 6f 00 	sts	0x006F, r24
     502:	83 32       	cpi	r24, 0x23	; 35
     504:	11 f4       	brne	.+4      	; 0x50a <MidiAddMsg+0x24c>
     506:	10 92 6f 00 	sts	0x006F, r1
				cbOut[cbOutEnd].channel = 0x91;
     50a:	80 91 6f 00 	lds	r24, 0x006F
     50e:	90 e0       	ldi	r25, 0x00	; 0
     510:	fc 01       	movw	r30, r24
     512:	ee 0f       	add	r30, r30
     514:	ff 1f       	adc	r31, r31
     516:	e8 0f       	add	r30, r24
     518:	f9 1f       	adc	r31, r25
     51a:	ef 5e       	subi	r30, 0xEF	; 239
     51c:	fe 4f       	sbci	r31, 0xFE	; 254
     51e:	df 01       	movw	r26, r30
     520:	81 e9       	ldi	r24, 0x91	; 145
     522:	8d 93       	st	X+, r24
				cbOut[cbOutEnd].control = 19;
     524:	83 e1       	ldi	r24, 0x13	; 19
     526:	8c 93       	st	X, r24
				cbOut[cbOutEnd].value 	= MIDI_NULL;
     528:	32 96       	adiw	r30, 0x02	; 2
     52a:	10 82       	st	Z, r1
     52c:	08 95       	ret
			}
			else 		
			{
				DDRight = 1;
     52e:	81 e0       	ldi	r24, 0x01	; 1
     530:	80 93 74 00 	sts	0x0074, r24

				BitReset(UCSRB, RXCIE);
     534:	ea e2       	ldi	r30, 0x2A	; 42
     536:	f0 e0       	ldi	r31, 0x00	; 0
     538:	80 81       	ld	r24, Z
     53a:	8f 77       	andi	r24, 0x7F	; 127
     53c:	80 83       	st	Z, r24
				cbIn[cbInEnd].channel	= 0x91; 
     53e:	20 91 71 00 	lds	r18, 0x0071
     542:	82 2f       	mov	r24, r18
     544:	90 e0       	ldi	r25, 0x00	; 0
     546:	fc 01       	movw	r30, r24
     548:	ee 0f       	add	r30, r30
     54a:	ff 1f       	adc	r31, r31
     54c:	e8 0f       	add	r30, r24
     54e:	f9 1f       	adc	r31, r25
     550:	e6 58       	subi	r30, 0x86	; 134
     552:	fe 4f       	sbci	r31, 0xFE	; 254
     554:	df 01       	movw	r26, r30
     556:	81 e9       	ldi	r24, 0x91	; 145
     558:	8d 93       	st	X+, r24
				cbIn[cbInEnd].control	= 0; 
     55a:	1c 92       	st	X, r1
				cbIn[cbInEnd].value		= MIDI_MAX; 
     55c:	32 96       	adiw	r30, 0x02	; 2
     55e:	8f e7       	ldi	r24, 0x7F	; 127
     560:	80 83       	st	Z, r24
				if(++cbInEnd == cbIn_MAX) cbInEnd = 0;
     562:	2f 5f       	subi	r18, 0xFF	; 255
     564:	23 32       	cpi	r18, 0x23	; 35
     566:	69 f4       	brne	.+26     	; 0x582 <MidiAddMsg+0x2c4>

				cbIn[cbInEnd].channel	= 0x91; 
     568:	aa e7       	ldi	r26, 0x7A	; 122
     56a:	b1 e0       	ldi	r27, 0x01	; 1
     56c:	fd 01       	movw	r30, r26
     56e:	81 e9       	ldi	r24, 0x91	; 145
     570:	81 93       	st	Z+, r24
				cbIn[cbInEnd].control	= 19; 
     572:	83 e1       	ldi	r24, 0x13	; 19
     574:	80 83       	st	Z, r24
				cbIn[cbInEnd].value		= MIDI_NULL; 
     576:	12 96       	adiw	r26, 0x02	; 2
     578:	1c 92       	st	X, r1
				if(++cbInEnd == cbIn_MAX) cbInEnd = 0;
     57a:	81 e0       	ldi	r24, 0x01	; 1
     57c:	80 93 71 00 	sts	0x0071, r24
     580:	18 c0       	rjmp	.+48     	; 0x5b2 <MidiAddMsg+0x2f4>
				cbIn[cbInEnd].channel	= 0x91; 
				cbIn[cbInEnd].control	= 0; 
				cbIn[cbInEnd].value		= MIDI_MAX; 
				if(++cbInEnd == cbIn_MAX) cbInEnd = 0;

				cbIn[cbInEnd].channel	= 0x91; 
     582:	82 2f       	mov	r24, r18
     584:	90 e0       	ldi	r25, 0x00	; 0
     586:	fc 01       	movw	r30, r24
     588:	ee 0f       	add	r30, r30
     58a:	ff 1f       	adc	r31, r31
     58c:	e8 0f       	add	r30, r24
     58e:	f9 1f       	adc	r31, r25
     590:	e6 58       	subi	r30, 0x86	; 134
     592:	fe 4f       	sbci	r31, 0xFE	; 254
     594:	df 01       	movw	r26, r30
     596:	81 e9       	ldi	r24, 0x91	; 145
     598:	8d 93       	st	X+, r24
				cbIn[cbInEnd].control	= 19; 
     59a:	83 e1       	ldi	r24, 0x13	; 19
     59c:	8c 93       	st	X, r24
				cbIn[cbInEnd].value		= MIDI_NULL; 
     59e:	32 96       	adiw	r30, 0x02	; 2
     5a0:	10 82       	st	Z, r1
				if(++cbInEnd == cbIn_MAX) cbInEnd = 0;
     5a2:	82 2f       	mov	r24, r18
     5a4:	8f 5f       	subi	r24, 0xFF	; 255
     5a6:	80 93 71 00 	sts	0x0071, r24
     5aa:	83 32       	cpi	r24, 0x23	; 35
     5ac:	11 f4       	brne	.+4      	; 0x5b2 <MidiAddMsg+0x2f4>
     5ae:	10 92 71 00 	sts	0x0071, r1
				BitSet(UCSRB, RXCIE);
     5b2:	ea e2       	ldi	r30, 0x2A	; 42
     5b4:	f0 e0       	ldi	r31, 0x00	; 0
     5b6:	80 81       	ld	r24, Z
     5b8:	80 68       	ori	r24, 0x80	; 128
     5ba:	80 83       	st	Z, r24

				if(++cbOutEnd == cbOut_MAX) cbOutEnd = 0;
     5bc:	80 91 6f 00 	lds	r24, 0x006F
     5c0:	8f 5f       	subi	r24, 0xFF	; 255
     5c2:	80 93 6f 00 	sts	0x006F, r24
     5c6:	83 32       	cpi	r24, 0x23	; 35
     5c8:	11 f4       	brne	.+4      	; 0x5ce <MidiAddMsg+0x310>
     5ca:	10 92 6f 00 	sts	0x006F, r1
				cbOut[cbOutEnd].channel = 0x91;
     5ce:	80 91 6f 00 	lds	r24, 0x006F
     5d2:	90 e0       	ldi	r25, 0x00	; 0
     5d4:	fc 01       	movw	r30, r24
     5d6:	ee 0f       	add	r30, r30
     5d8:	ff 1f       	adc	r31, r31
     5da:	e8 0f       	add	r30, r24
     5dc:	f9 1f       	adc	r31, r25
     5de:	ef 5e       	subi	r30, 0xEF	; 239
     5e0:	fe 4f       	sbci	r31, 0xFE	; 254
     5e2:	df 01       	movw	r26, r30
     5e4:	81 e9       	ldi	r24, 0x91	; 145
     5e6:	8d 93       	st	X+, r24
				cbOut[cbOutEnd].control = 19;
     5e8:	83 e1       	ldi	r24, 0x13	; 19
     5ea:	8c 93       	st	X, r24
				cbOut[cbOutEnd].value 	= MIDI_MAX;
     5ec:	32 96       	adiw	r30, 0x02	; 2
     5ee:	8f e7       	ldi	r24, 0x7F	; 127
     5f0:	80 83       	st	Z, r24
     5f2:	08 95       	ret
			}
		}	
	}	
	else	//if we press/move/touch other controls => sends message to TRAKTOR		
	{
		if(((channel & 0x0F) == 0) && DDLeft  && control != 9) 	channel = 3; 
     5f4:	90 e0       	ldi	r25, 0x00	; 0
     5f6:	9c 01       	movw	r18, r24
     5f8:	2f 70       	andi	r18, 0x0F	; 15
     5fa:	30 70       	andi	r19, 0x00	; 0
     5fc:	21 15       	cp	r18, r1
     5fe:	31 05       	cpc	r19, r1
     600:	41 f4       	brne	.+16     	; 0x612 <MidiAddMsg+0x354>
     602:	80 91 73 00 	lds	r24, 0x0073
     606:	88 23       	and	r24, r24
     608:	21 f0       	breq	.+8      	; 0x612 <MidiAddMsg+0x354>
     60a:	69 30       	cpi	r22, 0x09	; 9
     60c:	69 f0       	breq	.+26     	; 0x628 <MidiAddMsg+0x36a>
     60e:	33 e0       	ldi	r19, 0x03	; 3
     610:	0c c0       	rjmp	.+24     	; 0x62a <MidiAddMsg+0x36c>
		if(((channel & 0x0F) == 1) && DDRight && control != 9) 	channel = 4;
     612:	21 30       	cpi	r18, 0x01	; 1
     614:	31 05       	cpc	r19, r1
     616:	41 f4       	brne	.+16     	; 0x628 <MidiAddMsg+0x36a>
     618:	80 91 74 00 	lds	r24, 0x0074
     61c:	88 23       	and	r24, r24
     61e:	21 f0       	breq	.+8      	; 0x628 <MidiAddMsg+0x36a>
     620:	69 30       	cpi	r22, 0x09	; 9
     622:	11 f0       	breq	.+4      	; 0x628 <MidiAddMsg+0x36a>
     624:	34 e0       	ldi	r19, 0x04	; 4
     626:	01 c0       	rjmp	.+2      	; 0x62a <MidiAddMsg+0x36c>
     628:	35 2f       	mov	r19, r21

		channel |= temp;	//return back: type + ADRESS

		if(++cbOutEnd == cbOut_MAX) cbOutEnd = 0;
     62a:	80 91 6f 00 	lds	r24, 0x006F
     62e:	8f 5f       	subi	r24, 0xFF	; 255
     630:	80 93 6f 00 	sts	0x006F, r24
     634:	83 32       	cpi	r24, 0x23	; 35
     636:	11 f4       	brne	.+4      	; 0x63c <MidiAddMsg+0x37e>
     638:	10 92 6f 00 	sts	0x006F, r1
		cbOut[cbOutEnd].channel = channel;
     63c:	80 91 6f 00 	lds	r24, 0x006F
     640:	90 e0       	ldi	r25, 0x00	; 0
* Description    : Add message to the Midi out circular buffer
* Input			 : Midi message type, channel and value
*******************************************************************************/
void MidiAddMsg(uint8_t channel, uint8_t control, uint8_t value)
{
	uint8_t temp = channel & 0xF0;	//remember the ADRESS of midi message
     642:	25 2f       	mov	r18, r21
     644:	20 7f       	andi	r18, 0xF0	; 240
	else	//if we press/move/touch other controls => sends message to TRAKTOR		
	{
		if(((channel & 0x0F) == 0) && DDLeft  && control != 9) 	channel = 3; 
		if(((channel & 0x0F) == 1) && DDRight && control != 9) 	channel = 4;

		channel |= temp;	//return back: type + ADRESS
     646:	23 2b       	or	r18, r19

		if(++cbOutEnd == cbOut_MAX) cbOutEnd = 0;
		cbOut[cbOutEnd].channel = channel;
     648:	dc 01       	movw	r26, r24
     64a:	aa 0f       	add	r26, r26
     64c:	bb 1f       	adc	r27, r27
     64e:	a8 0f       	add	r26, r24
     650:	b9 1f       	adc	r27, r25
     652:	af 5e       	subi	r26, 0xEF	; 239
     654:	be 4f       	sbci	r27, 0xFE	; 254
     656:	fd 01       	movw	r30, r26
     658:	21 93       	st	Z+, r18
		cbOut[cbOutEnd].control = control;
     65a:	60 83       	st	Z, r22
		cbOut[cbOutEnd].value 	= value;
     65c:	12 96       	adiw	r26, 0x02	; 2
     65e:	4c 93       	st	X, r20

		UARTProcessOut();
     660:	0e 94 26 01 	call	0x24c	; 0x24c <UARTProcessOut>
     664:	08 95       	ret

00000666 <HardwareInit>:
* Description    : Initialize peripheral
*******************************************************************************/
void HardwareInit(void)
{
//I/O
	DDRA 	= 0b11010100;
     666:	84 ed       	ldi	r24, 0xD4	; 212
     668:	8a bb       	out	0x1a, r24	; 26
	DDRB 	= 0b10111000;
     66a:	88 eb       	ldi	r24, 0xB8	; 184
     66c:	87 bb       	out	0x17, r24	; 23
	DDRC 	= 0b11111111;
     66e:	8f ef       	ldi	r24, 0xFF	; 255
     670:	84 bb       	out	0x14, r24	; 20
	DDRD    = 0b11110111;
     672:	87 ef       	ldi	r24, 0xF7	; 247
     674:	81 bb       	out	0x11, r24	; 17

//ADC 
    ADMUX 	= (0<<REFS1)|(1<<REFS0)|(1<<ADLAR) | (0<<MUX3)|(0<<MUX2)|(0<<MUX1)|(0<<MUX0);
     676:	80 e6       	ldi	r24, 0x60	; 96
     678:	87 b9       	out	0x07, r24	; 7
    ADCSRA 	= (1<<ADEN)|(0<<ADSC)|(0<<ADATE)|(1<<ADIE) | (1<<ADPS2)|(1<<ADPS1)|(1<<ADPS0); 
     67a:	8f e8       	ldi	r24, 0x8F	; 143
     67c:	86 b9       	out	0x06, r24	; 6
    SFIOR 	= 0;
     67e:	10 be       	out	0x30, r1	; 48

//IRQ
	GICR 	|= /*(1<<INT0)|*/(1<<INT1)|(1<<INT2);
     680:	eb e5       	ldi	r30, 0x5B	; 91
     682:	f0 e0       	ldi	r31, 0x00	; 0
     684:	80 81       	ld	r24, Z
     686:	80 6a       	ori	r24, 0xA0	; 160
     688:	80 83       	st	Z, r24
    MCUCR 	|= /*(1<<ISC01)|(0<<ISC00)|*/(1<<ISC11)|(1<<ISC10);
     68a:	e5 e5       	ldi	r30, 0x55	; 85
     68c:	f0 e0       	ldi	r31, 0x00	; 0
     68e:	80 81       	ld	r24, Z
     690:	8c 60       	ori	r24, 0x0C	; 12
     692:	80 83       	st	Z, r24
    MCUCSR 	|= (1<<ISC2);
     694:	e4 e5       	ldi	r30, 0x54	; 84
     696:	f0 e0       	ldi	r31, 0x00	; 0
     698:	80 81       	ld	r24, Z
     69a:	80 64       	ori	r24, 0x40	; 64
     69c:	80 83       	st	Z, r24
	
//SPI
	SPCR 	= (1<<SPE)|(1<<MSTR)|(1<<SPR0);
     69e:	81 e5       	ldi	r24, 0x51	; 81
     6a0:	8d b9       	out	0x0d, r24	; 13

//PWM
    TCCR2 	|= (1<<WGM20)|(1<<WGM21)|(0<<COM20)|(1<<COM21)|(1<<CS20);
     6a2:	e5 e4       	ldi	r30, 0x45	; 69
     6a4:	f0 e0       	ldi	r31, 0x00	; 0
     6a6:	80 81       	ld	r24, Z
     6a8:	89 66       	ori	r24, 0x69	; 105
     6aa:	80 83       	st	Z, r24
    TCCR1A 	|= (1<<COM1A1)|(1<<COM1B1)|(0<<COM1A0)|(0<<COM1B0)|(1<<WGM10)|(0<<WGM11);
     6ac:	ef e4       	ldi	r30, 0x4F	; 79
     6ae:	f0 e0       	ldi	r31, 0x00	; 0
     6b0:	80 81       	ld	r24, Z
     6b2:	81 6a       	ori	r24, 0xA1	; 161
     6b4:	80 83       	st	Z, r24
    TCCR1B 	|= (1<<WGM12)|(0<<WGM13)|(0<<CS12)|(0<<CS11)|(1<<CS10); 
     6b6:	ee e4       	ldi	r30, 0x4E	; 78
     6b8:	f0 e0       	ldi	r31, 0x00	; 0
     6ba:	80 81       	ld	r24, Z
     6bc:	89 60       	ori	r24, 0x09	; 9
     6be:	80 83       	st	Z, r24
	TCCR0 	|= (1<<WGM01)|(1<<CS02)|(0<<CS01)|(1<<CS00);
     6c0:	e3 e5       	ldi	r30, 0x53	; 83
     6c2:	f0 e0       	ldi	r31, 0x00	; 0
     6c4:	80 81       	ld	r24, Z
     6c6:	8d 60       	ori	r24, 0x0D	; 13
     6c8:	80 83       	st	Z, r24
	TIMSK 	|= (1<<OCIE0)|(1<<TOIE0);
     6ca:	e9 e5       	ldi	r30, 0x59	; 89
     6cc:	f0 e0       	ldi	r31, 0x00	; 0
     6ce:	80 81       	ld	r24, Z
     6d0:	83 60       	ori	r24, 0x03	; 3
     6d2:	80 83       	st	Z, r24

	OCR0 = 30;//250 for 12.8ms      77 for 4ms
     6d4:	8e e1       	ldi	r24, 0x1E	; 30
     6d6:	8c bf       	out	0x3c, r24	; 60

//USART
	#define BAUD_PRESCALE 39
	UBRRL = (uint8_t)BAUD_PRESCALE;// Load lower 8-bits into the low byte of the UBRR register
     6d8:	87 e2       	ldi	r24, 0x27	; 39
     6da:	89 b9       	out	0x09, r24	; 9
    UBRRH = (uint8_t)(BAUD_PRESCALE >> 8); 
     6dc:	e0 e4       	ldi	r30, 0x40	; 64
     6de:	f0 e0       	ldi	r31, 0x00	; 0
     6e0:	10 82       	st	Z, r1
    UCSRB = (1<<TXEN) |(1<<RXEN) |(1<<RXCIE);
     6e2:	88 e9       	ldi	r24, 0x98	; 152
     6e4:	8a b9       	out	0x0a, r24	; 10
	UCSRC = (1<<URSEL)|(1<<UCSZ0)|(1<<UCSZ1);
     6e6:	86 e8       	ldi	r24, 0x86	; 134
     6e8:	80 83       	st	Z, r24

//watchdog
	wdt_enable(WDTO_1S);
     6ea:	2e e0       	ldi	r18, 0x0E	; 14
     6ec:	88 e1       	ldi	r24, 0x18	; 24
     6ee:	90 e0       	ldi	r25, 0x00	; 0
     6f0:	0f b6       	in	r0, 0x3f	; 63
     6f2:	f8 94       	cli
     6f4:	a8 95       	wdr
     6f6:	81 bd       	out	0x21, r24	; 33
     6f8:	0f be       	out	0x3f, r0	; 63
     6fa:	21 bd       	out	0x21, r18	; 33

	cbIn[cbInEnd].channel=0x90; 
     6fc:	20 91 71 00 	lds	r18, 0x0071
     700:	82 2f       	mov	r24, r18
     702:	90 e0       	ldi	r25, 0x00	; 0
     704:	fc 01       	movw	r30, r24
     706:	ee 0f       	add	r30, r30
     708:	ff 1f       	adc	r31, r31
     70a:	e8 0f       	add	r30, r24
     70c:	f9 1f       	adc	r31, r25
     70e:	e6 58       	subi	r30, 0x86	; 134
     710:	fe 4f       	sbci	r31, 0xFE	; 254
     712:	df 01       	movw	r26, r30
     714:	80 e9       	ldi	r24, 0x90	; 144
     716:	8d 93       	st	X+, r24
	cbIn[cbInEnd].control=19; 
     718:	83 e1       	ldi	r24, 0x13	; 19
     71a:	8c 93       	st	X, r24
	cbIn[cbInEnd].value=127; 
     71c:	32 96       	adiw	r30, 0x02	; 2
     71e:	8f e7       	ldi	r24, 0x7F	; 127
     720:	80 83       	st	Z, r24
	if(++cbInEnd == cbIn_MAX) cbInEnd = 0;
     722:	2f 5f       	subi	r18, 0xFF	; 255
     724:	23 32       	cpi	r18, 0x23	; 35
     726:	71 f4       	brne	.+28     	; 0x744 <HardwareInit+0xde>

	cbIn[cbInEnd].channel=0x91; 
     728:	aa e7       	ldi	r26, 0x7A	; 122
     72a:	b1 e0       	ldi	r27, 0x01	; 1
     72c:	fd 01       	movw	r30, r26
     72e:	81 e9       	ldi	r24, 0x91	; 145
     730:	81 93       	st	Z+, r24
	cbIn[cbInEnd].control=19; 
     732:	83 e1       	ldi	r24, 0x13	; 19
     734:	80 83       	st	Z, r24
	cbIn[cbInEnd].value=127; 
     736:	12 96       	adiw	r26, 0x02	; 2
     738:	8f e7       	ldi	r24, 0x7F	; 127
     73a:	8c 93       	st	X, r24
	if(++cbInEnd == cbIn_MAX) cbInEnd = 0;
     73c:	81 e0       	ldi	r24, 0x01	; 1
     73e:	80 93 71 00 	sts	0x0071, r24
     742:	08 95       	ret
	cbIn[cbInEnd].channel=0x90; 
	cbIn[cbInEnd].control=19; 
	cbIn[cbInEnd].value=127; 
	if(++cbInEnd == cbIn_MAX) cbInEnd = 0;

	cbIn[cbInEnd].channel=0x91; 
     744:	82 2f       	mov	r24, r18
     746:	90 e0       	ldi	r25, 0x00	; 0
     748:	fc 01       	movw	r30, r24
     74a:	ee 0f       	add	r30, r30
     74c:	ff 1f       	adc	r31, r31
     74e:	e8 0f       	add	r30, r24
     750:	f9 1f       	adc	r31, r25
     752:	e6 58       	subi	r30, 0x86	; 134
     754:	fe 4f       	sbci	r31, 0xFE	; 254
     756:	df 01       	movw	r26, r30
     758:	81 e9       	ldi	r24, 0x91	; 145
     75a:	8d 93       	st	X+, r24
	cbIn[cbInEnd].control=19; 
     75c:	83 e1       	ldi	r24, 0x13	; 19
     75e:	8c 93       	st	X, r24
	cbIn[cbInEnd].value=127; 
     760:	32 96       	adiw	r30, 0x02	; 2
     762:	8f e7       	ldi	r24, 0x7F	; 127
     764:	80 83       	st	Z, r24
	if(++cbInEnd == cbIn_MAX) cbInEnd = 0;
     766:	82 2f       	mov	r24, r18
     768:	8f 5f       	subi	r24, 0xFF	; 255
     76a:	80 93 71 00 	sts	0x0071, r24
     76e:	83 32       	cpi	r24, 0x23	; 35
     770:	11 f4       	brne	.+4      	; 0x776 <HardwareInit+0x110>
     772:	10 92 71 00 	sts	0x0071, r1
     776:	08 95       	ret

00000778 <__vector_13>:
/*******************************************************************************
* Function Name  : USART_RXC_vect
* Description    : UART Receive interrupt routine
*******************************************************************************/
ISR(USART_RXC_vect)
{
     778:	1f 92       	push	r1
     77a:	0f 92       	push	r0
     77c:	0f b6       	in	r0, 0x3f	; 63
     77e:	0f 92       	push	r0
     780:	11 24       	eor	r1, r1
     782:	2f 93       	push	r18
     784:	8f 93       	push	r24
     786:	9f 93       	push	r25
     788:	ef 93       	push	r30
     78a:	ff 93       	push	r31
	static volatile uint8_t RxNum=0;
	
	if(RxNum == 0) cbIn[cbInEnd].channel = (uint8_t)UDR;
     78c:	80 91 76 00 	lds	r24, 0x0076
     790:	88 23       	and	r24, r24
     792:	61 f4       	brne	.+24     	; 0x7ac <__vector_13+0x34>
     794:	80 91 71 00 	lds	r24, 0x0071
     798:	90 e0       	ldi	r25, 0x00	; 0
     79a:	2c b1       	in	r18, 0x0c	; 12
     79c:	fc 01       	movw	r30, r24
     79e:	ee 0f       	add	r30, r30
     7a0:	ff 1f       	adc	r31, r31
     7a2:	e8 0f       	add	r30, r24
     7a4:	f9 1f       	adc	r31, r25
     7a6:	e6 58       	subi	r30, 0x86	; 134
     7a8:	fe 4f       	sbci	r31, 0xFE	; 254
     7aa:	20 83       	st	Z, r18
	if(RxNum == 1) cbIn[cbInEnd].control = (uint8_t)UDR;
     7ac:	80 91 76 00 	lds	r24, 0x0076
     7b0:	81 30       	cpi	r24, 0x01	; 1
     7b2:	61 f4       	brne	.+24     	; 0x7cc <__vector_13+0x54>
     7b4:	80 91 71 00 	lds	r24, 0x0071
     7b8:	90 e0       	ldi	r25, 0x00	; 0
     7ba:	2c b1       	in	r18, 0x0c	; 12
     7bc:	fc 01       	movw	r30, r24
     7be:	ee 0f       	add	r30, r30
     7c0:	ff 1f       	adc	r31, r31
     7c2:	e8 0f       	add	r30, r24
     7c4:	f9 1f       	adc	r31, r25
     7c6:	e5 58       	subi	r30, 0x85	; 133
     7c8:	fe 4f       	sbci	r31, 0xFE	; 254
     7ca:	20 83       	st	Z, r18
	if(RxNum == 2) cbIn[cbInEnd].value   = (uint8_t)UDR;
     7cc:	80 91 76 00 	lds	r24, 0x0076
     7d0:	82 30       	cpi	r24, 0x02	; 2
     7d2:	61 f4       	brne	.+24     	; 0x7ec <__vector_13+0x74>
     7d4:	80 91 71 00 	lds	r24, 0x0071
     7d8:	90 e0       	ldi	r25, 0x00	; 0
     7da:	2c b1       	in	r18, 0x0c	; 12
     7dc:	fc 01       	movw	r30, r24
     7de:	ee 0f       	add	r30, r30
     7e0:	ff 1f       	adc	r31, r31
     7e2:	e8 0f       	add	r30, r24
     7e4:	f9 1f       	adc	r31, r25
     7e6:	e4 58       	subi	r30, 0x84	; 132
     7e8:	fe 4f       	sbci	r31, 0xFE	; 254
     7ea:	20 83       	st	Z, r18

	if(++RxNum >= 3) 
     7ec:	80 91 76 00 	lds	r24, 0x0076
     7f0:	8f 5f       	subi	r24, 0xFF	; 255
     7f2:	80 93 76 00 	sts	0x0076, r24
     7f6:	80 91 76 00 	lds	r24, 0x0076
     7fa:	83 30       	cpi	r24, 0x03	; 3
     7fc:	58 f0       	brcs	.+22     	; 0x814 <__vector_13+0x9c>
	{
		RxNum = 0;
     7fe:	10 92 76 00 	sts	0x0076, r1
		if(++cbInEnd == cbIn_MAX) cbInEnd = 0;
     802:	80 91 71 00 	lds	r24, 0x0071
     806:	8f 5f       	subi	r24, 0xFF	; 255
     808:	80 93 71 00 	sts	0x0071, r24
     80c:	83 32       	cpi	r24, 0x23	; 35
     80e:	11 f4       	brne	.+4      	; 0x814 <__vector_13+0x9c>
     810:	10 92 71 00 	sts	0x0071, r1
	}	
}
     814:	ff 91       	pop	r31
     816:	ef 91       	pop	r30
     818:	9f 91       	pop	r25
     81a:	8f 91       	pop	r24
     81c:	2f 91       	pop	r18
     81e:	0f 90       	pop	r0
     820:	0f be       	out	0x3f, r0	; 63
     822:	0f 90       	pop	r0
     824:	1f 90       	pop	r1
     826:	18 95       	reti

00000828 <__vector_14>:
/*******************************************************************************
* Function Name  : USART_UDRE_vect
* Description    : UART Transfer interrupt routine
*******************************************************************************/
ISR(USART_UDRE_vect)
{
     828:	1f 92       	push	r1
     82a:	0f 92       	push	r0
     82c:	0f b6       	in	r0, 0x3f	; 63
     82e:	0f 92       	push	r0
     830:	11 24       	eor	r1, r1
     832:	8f 93       	push	r24
     834:	9f 93       	push	r25
     836:	ef 93       	push	r30
     838:	ff 93       	push	r31
	static uint8_t posCnt=0;

    if(TxFlag)
     83a:	80 91 72 00 	lds	r24, 0x0072
     83e:	88 23       	and	r24, r24
     840:	c1 f0       	breq	.+48     	; 0x872 <__stack+0x13>
    {
        if(posCnt >= 3) 
     842:	90 91 75 00 	lds	r25, 0x0075
     846:	93 30       	cpi	r25, 0x03	; 3
     848:	50 f0       	brcs	.+20     	; 0x85e <__vector_14+0x36>
        {
            posCnt = 0;
     84a:	10 92 75 00 	sts	0x0075, r1
            TxFlag = 0;
     84e:	10 92 72 00 	sts	0x0072, r1
            UCSRB &= ~(1<<UDRIE);
     852:	ea e2       	ldi	r30, 0x2A	; 42
     854:	f0 e0       	ldi	r31, 0x00	; 0
     856:	80 81       	ld	r24, Z
     858:	8f 7d       	andi	r24, 0xDF	; 223
     85a:	80 83       	st	Z, r24
     85c:	0a c0       	rjmp	.+20     	; 0x872 <__stack+0x13>
        }
        else
        {
            UDR = midiMessage[posCnt++];
     85e:	ee e0       	ldi	r30, 0x0E	; 14
     860:	f1 e0       	ldi	r31, 0x01	; 1
     862:	e9 0f       	add	r30, r25
     864:	f1 1d       	adc	r31, r1
     866:	80 81       	ld	r24, Z
     868:	8c b9       	out	0x0c, r24	; 12
     86a:	89 2f       	mov	r24, r25
     86c:	8f 5f       	subi	r24, 0xFF	; 255
     86e:	80 93 75 00 	sts	0x0075, r24
        }            
    }	
}
     872:	ff 91       	pop	r31
     874:	ef 91       	pop	r30
     876:	9f 91       	pop	r25
     878:	8f 91       	pop	r24
     87a:	0f 90       	pop	r0
     87c:	0f be       	out	0x3f, r0	; 63
     87e:	0f 90       	pop	r0
     880:	1f 90       	pop	r1
     882:	18 95       	reti

00000884 <UARTProcessIn>:
/*******************************************************************************
* Function Name  : MidiIn
* Description    : Receive information from MIDI HOST
*******************************************************************************/
void UARTProcessIn()
{
     884:	1f 93       	push	r17
     886:	cf 93       	push	r28
     888:	df 93       	push	r29
	if(cbInStart != cbInEnd)
     88a:	90 91 70 00 	lds	r25, 0x0070
     88e:	80 91 71 00 	lds	r24, 0x0071
     892:	98 17       	cp	r25, r24
     894:	09 f4       	brne	.+2      	; 0x898 <UARTProcessIn+0x14>
     896:	a0 c1       	rjmp	.+832    	; 0xbd8 <UARTProcessIn+0x354>
	{
		static uint8_t g = 0;
		if(g!= 10)
     898:	80 91 7a 00 	lds	r24, 0x007A
     89c:	8a 30       	cpi	r24, 0x0A	; 10
     89e:	49 f0       	breq	.+18     	; 0x8b2 <UARTProcessIn+0x2e>
		{
		//	ResetIO(&IO);
			if(++g == 10) SendFaders(&IO);
     8a0:	8f 5f       	subi	r24, 0xFF	; 255
     8a2:	80 93 7a 00 	sts	0x007A, r24
     8a6:	8a 30       	cpi	r24, 0x0A	; 10
     8a8:	21 f4       	brne	.+8      	; 0x8b2 <UARTProcessIn+0x2e>
     8aa:	88 e8       	ldi	r24, 0x88	; 136
     8ac:	90 e0       	ldi	r25, 0x00	; 0
     8ae:	0e 94 c7 0e 	call	0x1d8e	; 0x1d8e <SendFaders>
		}

	  	uint8_t b,c,d;

		b = cbIn[cbInStart].channel;
     8b2:	20 91 70 00 	lds	r18, 0x0070
     8b6:	82 2f       	mov	r24, r18
     8b8:	90 e0       	ldi	r25, 0x00	; 0
     8ba:	dc 01       	movw	r26, r24
     8bc:	aa 0f       	add	r26, r26
     8be:	bb 1f       	adc	r27, r27
     8c0:	a8 0f       	add	r26, r24
     8c2:	b9 1f       	adc	r27, r25
     8c4:	a6 58       	subi	r26, 0x86	; 134
     8c6:	be 4f       	sbci	r27, 0xFE	; 254
     8c8:	fd 01       	movw	r30, r26
     8ca:	51 91       	ld	r21, Z+
		c = cbIn[cbInStart].control;
     8cc:	40 81       	ld	r20, Z
		d = cbIn[cbInStart].value;
     8ce:	12 96       	adiw	r26, 0x02	; 2
     8d0:	1c 91       	ld	r17, X

		if(++cbInStart == cbIn_MAX) cbInStart = 0;
     8d2:	2f 5f       	subi	r18, 0xFF	; 255
     8d4:	20 93 70 00 	sts	0x0070, r18
     8d8:	23 32       	cpi	r18, 0x23	; 35
     8da:	11 f4       	brne	.+4      	; 0x8e0 <UARTProcessIn+0x5c>
     8dc:	10 92 70 00 	sts	0x0070, r1


		if(((b & 0x0F) < 3) && c < 35)
     8e0:	85 2f       	mov	r24, r21
     8e2:	90 e0       	ldi	r25, 0x00	; 0
     8e4:	bc 01       	movw	r22, r24
     8e6:	6f 70       	andi	r22, 0x0F	; 15
     8e8:	70 70       	andi	r23, 0x00	; 0
     8ea:	63 30       	cpi	r22, 0x03	; 3
     8ec:	71 05       	cpc	r23, r1
     8ee:	0c f0       	brlt	.+2      	; 0x8f2 <UARTProcessIn+0x6e>
     8f0:	e0 c0       	rjmp	.+448    	; 0xab2 <UARTProcessIn+0x22e>
     8f2:	43 32       	cpi	r20, 0x23	; 35
     8f4:	08 f0       	brcs	.+2      	; 0x8f8 <UARTProcessIn+0x74>
     8f6:	dd c0       	rjmp	.+442    	; 0xab2 <UARTProcessIn+0x22e>
		{
			//note off
			if(d == 0)		
     8f8:	11 23       	and	r17, r17
     8fa:	a1 f5       	brne	.+104    	; 0x964 <UARTProcessIn+0xe0>
			{
				uint8_t n = pgm_read_byte(&(BL[b&0x0F][c]));
     8fc:	fb 01       	movw	r30, r22
     8fe:	ee 0f       	add	r30, r30
     900:	ff 1f       	adc	r31, r31
     902:	e2 95       	swap	r30
     904:	f2 95       	swap	r31
     906:	f0 7f       	andi	r31, 0xF0	; 240
     908:	fe 27       	eor	r31, r30
     90a:	e0 7f       	andi	r30, 0xF0	; 240
     90c:	fe 27       	eor	r31, r30
     90e:	e4 0f       	add	r30, r20
     910:	f1 1d       	adc	r31, r1
     912:	ec 5a       	subi	r30, 0xAC	; 172
     914:	ff 4f       	sbci	r31, 0xFF	; 255
     916:	84 91       	lpm	r24, Z+

				if(n<50)
     918:	82 33       	cpi	r24, 0x32	; 50
     91a:	08 f0       	brcs	.+2      	; 0x91e <UARTProcessIn+0x9a>
     91c:	ca c0       	rjmp	.+404    	; 0xab2 <UARTProcessIn+0x22e>
				{
					BitWrite( 	0, 
     91e:	e8 2f       	mov	r30, r24
     920:	e6 95       	lsr	r30
     922:	e6 95       	lsr	r30
     924:	e6 95       	lsr	r30
     926:	f0 e0       	ldi	r31, 0x00	; 0
     928:	9f 01       	movw	r18, r30
     92a:	22 0f       	add	r18, r18
     92c:	33 1f       	adc	r19, r19
     92e:	22 0f       	add	r18, r18
     930:	33 1f       	adc	r19, r19
     932:	22 0f       	add	r18, r18
     934:	33 1f       	adc	r19, r19
     936:	90 e0       	ldi	r25, 0x00	; 0
     938:	82 1b       	sub	r24, r18
     93a:	93 0b       	sbc	r25, r19
     93c:	21 e0       	ldi	r18, 0x01	; 1
     93e:	30 e0       	ldi	r19, 0x00	; 0
     940:	02 c0       	rjmp	.+4      	; 0x946 <UARTProcessIn+0xc2>
     942:	22 0f       	add	r18, r18
     944:	33 1f       	adc	r19, r19
     946:	8a 95       	dec	r24
     948:	e2 f7       	brpl	.-8      	; 0x942 <UARTProcessIn+0xbe>
     94a:	20 95       	com	r18
     94c:	e8 57       	subi	r30, 0x78	; 120
     94e:	ff 4f       	sbci	r31, 0xFF	; 255
     950:	df 01       	movw	r26, r30
     952:	54 96       	adiw	r26, 0x14	; 20
     954:	8c 91       	ld	r24, X
     956:	82 23       	and	r24, r18
     958:	8c 93       	st	X, r24
								IO.lightIN[n>>3], 
								n-(n>>3)*8 ); 
					BitWrite( 	0, 
     95a:	7b 96       	adiw	r30, 0x1b	; 27
     95c:	80 81       	ld	r24, Z
     95e:	28 23       	and	r18, r24
     960:	20 83       	st	Z, r18
     962:	a7 c0       	rjmp	.+334    	; 0xab2 <UARTProcessIn+0x22e>
								n-(n>>3)*8 ); 
				} 
			}

			//note #blink#
			else if(d == 32)	
     964:	10 32       	cpi	r17, 0x20	; 32
     966:	c1 f5       	brne	.+112    	; 0x9d8 <UARTProcessIn+0x154>
			{
				uint8_t n = pgm_read_byte(&(BL[b&0x0F][c]));
     968:	e5 2f       	mov	r30, r21
     96a:	f0 e0       	ldi	r31, 0x00	; 0
     96c:	ef 70       	andi	r30, 0x0F	; 15
     96e:	f0 70       	andi	r31, 0x00	; 0
     970:	ee 0f       	add	r30, r30
     972:	ff 1f       	adc	r31, r31
     974:	e2 95       	swap	r30
     976:	f2 95       	swap	r31
     978:	f0 7f       	andi	r31, 0xF0	; 240
     97a:	fe 27       	eor	r31, r30
     97c:	e0 7f       	andi	r30, 0xF0	; 240
     97e:	fe 27       	eor	r31, r30
     980:	e4 0f       	add	r30, r20
     982:	f1 1d       	adc	r31, r1
     984:	ec 5a       	subi	r30, 0xAC	; 172
     986:	ff 4f       	sbci	r31, 0xFF	; 255
     988:	84 91       	lpm	r24, Z+

				if(n<50)
     98a:	82 33       	cpi	r24, 0x32	; 50
     98c:	08 f0       	brcs	.+2      	; 0x990 <UARTProcessIn+0x10c>
     98e:	91 c0       	rjmp	.+290    	; 0xab2 <UARTProcessIn+0x22e>
				{
					BitWrite( 	0, 
     990:	e8 2f       	mov	r30, r24
     992:	e6 95       	lsr	r30
     994:	e6 95       	lsr	r30
     996:	e6 95       	lsr	r30
     998:	f0 e0       	ldi	r31, 0x00	; 0
     99a:	9f 01       	movw	r18, r30
     99c:	22 0f       	add	r18, r18
     99e:	33 1f       	adc	r19, r19
     9a0:	22 0f       	add	r18, r18
     9a2:	33 1f       	adc	r19, r19
     9a4:	22 0f       	add	r18, r18
     9a6:	33 1f       	adc	r19, r19
     9a8:	90 e0       	ldi	r25, 0x00	; 0
     9aa:	82 1b       	sub	r24, r18
     9ac:	93 0b       	sbc	r25, r19
     9ae:	21 e0       	ldi	r18, 0x01	; 1
     9b0:	30 e0       	ldi	r19, 0x00	; 0
     9b2:	02 c0       	rjmp	.+4      	; 0x9b8 <UARTProcessIn+0x134>
     9b4:	22 0f       	add	r18, r18
     9b6:	33 1f       	adc	r19, r19
     9b8:	8a 95       	dec	r24
     9ba:	e2 f7       	brpl	.-8      	; 0x9b4 <UARTProcessIn+0x130>
     9bc:	e8 57       	subi	r30, 0x78	; 120
     9be:	ff 4f       	sbci	r31, 0xFF	; 255
     9c0:	df 01       	movw	r26, r30
     9c2:	54 96       	adiw	r26, 0x14	; 20
     9c4:	82 2f       	mov	r24, r18
     9c6:	80 95       	com	r24
     9c8:	9c 91       	ld	r25, X
     9ca:	89 23       	and	r24, r25
     9cc:	8c 93       	st	X, r24
								IO.lightIN[n>>3], 
								n-(n>>3)*8 );
					BitWrite( 	1, 
     9ce:	7b 96       	adiw	r30, 0x1b	; 27
     9d0:	80 81       	ld	r24, Z
     9d2:	28 2b       	or	r18, r24
     9d4:	20 83       	st	Z, r18
     9d6:	6d c0       	rjmp	.+218    	; 0xab2 <UARTProcessIn+0x22e>
								n-(n>>3)*8 );
				} 
			}

			//note #flash#
			else if(d == 64)		
     9d8:	10 34       	cpi	r17, 0x40	; 64
     9da:	b1 f5       	brne	.+108    	; 0xa48 <UARTProcessIn+0x1c4>
			{
				uint8_t n = pgm_read_byte(&(BL[b&0x0F][c]));
     9dc:	e5 2f       	mov	r30, r21
     9de:	f0 e0       	ldi	r31, 0x00	; 0
     9e0:	ef 70       	andi	r30, 0x0F	; 15
     9e2:	f0 70       	andi	r31, 0x00	; 0
     9e4:	ee 0f       	add	r30, r30
     9e6:	ff 1f       	adc	r31, r31
     9e8:	e2 95       	swap	r30
     9ea:	f2 95       	swap	r31
     9ec:	f0 7f       	andi	r31, 0xF0	; 240
     9ee:	fe 27       	eor	r31, r30
     9f0:	e0 7f       	andi	r30, 0xF0	; 240
     9f2:	fe 27       	eor	r31, r30
     9f4:	e4 0f       	add	r30, r20
     9f6:	f1 1d       	adc	r31, r1
     9f8:	ec 5a       	subi	r30, 0xAC	; 172
     9fa:	ff 4f       	sbci	r31, 0xFF	; 255
     9fc:	84 91       	lpm	r24, Z+

				if(n<50)
     9fe:	82 33       	cpi	r24, 0x32	; 50
     a00:	08 f0       	brcs	.+2      	; 0xa04 <UARTProcessIn+0x180>
     a02:	57 c0       	rjmp	.+174    	; 0xab2 <UARTProcessIn+0x22e>
				{
					BitWrite( 	1, 
     a04:	e8 2f       	mov	r30, r24
     a06:	e6 95       	lsr	r30
     a08:	e6 95       	lsr	r30
     a0a:	e6 95       	lsr	r30
     a0c:	f0 e0       	ldi	r31, 0x00	; 0
     a0e:	9f 01       	movw	r18, r30
     a10:	22 0f       	add	r18, r18
     a12:	33 1f       	adc	r19, r19
     a14:	22 0f       	add	r18, r18
     a16:	33 1f       	adc	r19, r19
     a18:	22 0f       	add	r18, r18
     a1a:	33 1f       	adc	r19, r19
     a1c:	90 e0       	ldi	r25, 0x00	; 0
     a1e:	82 1b       	sub	r24, r18
     a20:	93 0b       	sbc	r25, r19
     a22:	21 e0       	ldi	r18, 0x01	; 1
     a24:	30 e0       	ldi	r19, 0x00	; 0
     a26:	02 c0       	rjmp	.+4      	; 0xa2c <UARTProcessIn+0x1a8>
     a28:	22 0f       	add	r18, r18
     a2a:	33 1f       	adc	r19, r19
     a2c:	8a 95       	dec	r24
     a2e:	e2 f7       	brpl	.-8      	; 0xa28 <UARTProcessIn+0x1a4>
     a30:	e8 57       	subi	r30, 0x78	; 120
     a32:	ff 4f       	sbci	r31, 0xFF	; 255
     a34:	df 01       	movw	r26, r30
     a36:	54 96       	adiw	r26, 0x14	; 20
     a38:	8c 91       	ld	r24, X
     a3a:	82 2b       	or	r24, r18
     a3c:	8c 93       	st	X, r24
								IO.lightIN[n>>3], 
								n-(n>>3)*8 );
					BitWrite( 	1, 
     a3e:	7b 96       	adiw	r30, 0x1b	; 27
     a40:	80 81       	ld	r24, Z
     a42:	28 2b       	or	r18, r24
     a44:	20 83       	st	Z, r18
     a46:	35 c0       	rjmp	.+106    	; 0xab2 <UARTProcessIn+0x22e>
			}

			//note on
			else /*if(d == 127)	*/
			{
				uint8_t n = pgm_read_byte(&(BL[b&0x0F][c]));
     a48:	e5 2f       	mov	r30, r21
     a4a:	f0 e0       	ldi	r31, 0x00	; 0
     a4c:	ef 70       	andi	r30, 0x0F	; 15
     a4e:	f0 70       	andi	r31, 0x00	; 0
     a50:	ee 0f       	add	r30, r30
     a52:	ff 1f       	adc	r31, r31
     a54:	e2 95       	swap	r30
     a56:	f2 95       	swap	r31
     a58:	f0 7f       	andi	r31, 0xF0	; 240
     a5a:	fe 27       	eor	r31, r30
     a5c:	e0 7f       	andi	r30, 0xF0	; 240
     a5e:	fe 27       	eor	r31, r30
     a60:	e4 0f       	add	r30, r20
     a62:	f1 1d       	adc	r31, r1
     a64:	ec 5a       	subi	r30, 0xAC	; 172
     a66:	ff 4f       	sbci	r31, 0xFF	; 255
     a68:	24 91       	lpm	r18, Z+

				if(n<50)
     a6a:	22 33       	cpi	r18, 0x32	; 50
     a6c:	10 f5       	brcc	.+68     	; 0xab2 <UARTProcessIn+0x22e>
				{
					BitWrite( 	1, 
     a6e:	e2 2f       	mov	r30, r18
     a70:	e6 95       	lsr	r30
     a72:	e6 95       	lsr	r30
     a74:	e6 95       	lsr	r30
     a76:	f0 e0       	ldi	r31, 0x00	; 0
     a78:	cf 01       	movw	r24, r30
     a7a:	88 0f       	add	r24, r24
     a7c:	99 1f       	adc	r25, r25
     a7e:	88 0f       	add	r24, r24
     a80:	99 1f       	adc	r25, r25
     a82:	88 0f       	add	r24, r24
     a84:	99 1f       	adc	r25, r25
     a86:	30 e0       	ldi	r19, 0x00	; 0
     a88:	28 1b       	sub	r18, r24
     a8a:	39 0b       	sbc	r19, r25
     a8c:	81 e0       	ldi	r24, 0x01	; 1
     a8e:	90 e0       	ldi	r25, 0x00	; 0
     a90:	02 c0       	rjmp	.+4      	; 0xa96 <UARTProcessIn+0x212>
     a92:	88 0f       	add	r24, r24
     a94:	99 1f       	adc	r25, r25
     a96:	2a 95       	dec	r18
     a98:	e2 f7       	brpl	.-8      	; 0xa92 <UARTProcessIn+0x20e>
     a9a:	e8 57       	subi	r30, 0x78	; 120
     a9c:	ff 4f       	sbci	r31, 0xFF	; 255
     a9e:	df 01       	movw	r26, r30
     aa0:	54 96       	adiw	r26, 0x14	; 20
     aa2:	2c 91       	ld	r18, X
     aa4:	28 2b       	or	r18, r24
     aa6:	2c 93       	st	X, r18
								IO.lightIN[n>>3], 
								n-(n>>3)*8 );  
					BitWrite( 	0, 
     aa8:	7b 96       	adiw	r30, 0x1b	; 27
     aaa:	80 95       	com	r24
     aac:	20 81       	ld	r18, Z
     aae:	82 23       	and	r24, r18
     ab0:	80 83       	st	Z, r24
				}
			}
		}

		//other
		if(((b & 0x0F) == 3) ) //ch4
     ab2:	63 30       	cpi	r22, 0x03	; 3
     ab4:	71 05       	cpc	r23, r1
     ab6:	09 f0       	breq	.+2      	; 0xaba <UARTProcessIn+0x236>
     ab8:	60 c0       	rjmp	.+192    	; 0xb7a <UARTProcessIn+0x2f6>
		{
			if(c == 0 || c == 2) 	//A & C progress bar
     aba:	44 23       	and	r20, r20
     abc:	11 f0       	breq	.+4      	; 0xac2 <UARTProcessIn+0x23e>
     abe:	42 30       	cpi	r20, 0x02	; 2
     ac0:	31 f4       	brne	.+12     	; 0xace <UARTProcessIn+0x24a>
				OutBuf.barLeft = d%20;
     ac2:	81 2f       	mov	r24, r17
     ac4:	64 e1       	ldi	r22, 0x14	; 20
     ac6:	0e 94 ef 0e 	call	0x1dde	; 0x1dde <__udivmodqi4>
     aca:	90 93 80 00 	sts	0x0080, r25

			if(c == 1 || c == 3) 	//B & D progress bar
     ace:	41 30       	cpi	r20, 0x01	; 1
     ad0:	11 f0       	breq	.+4      	; 0xad6 <UARTProcessIn+0x252>
     ad2:	43 30       	cpi	r20, 0x03	; 3
     ad4:	31 f4       	brne	.+12     	; 0xae2 <UARTProcessIn+0x25e>
				OutBuf.barRight = d%20;
     ad6:	81 2f       	mov	r24, r17
     ad8:	64 e1       	ldi	r22, 0x14	; 20
     ada:	0e 94 ef 0e 	call	0x1dde	; 0x1dde <__udivmodqi4>
     ade:	90 93 81 00 	sts	0x0081, r25

			if(c == 4 || c == 6)  	//A & C 7seg
     ae2:	44 30       	cpi	r20, 0x04	; 4
     ae4:	11 f0       	breq	.+4      	; 0xaea <UARTProcessIn+0x266>
     ae6:	46 30       	cpi	r20, 0x06	; 6
     ae8:	c1 f4       	brne	.+48     	; 0xb1a <UARTProcessIn+0x296>
			{
				IO.light[15] = pgm_read_byte(&( display[ (d%11)*2  ] ));
     aea:	81 2f       	mov	r24, r17
     aec:	6b e0       	ldi	r22, 0x0B	; 11
     aee:	0e 94 ef 0e 	call	0x1dde	; 0x1dde <__udivmodqi4>
     af2:	89 2f       	mov	r24, r25
     af4:	90 e0       	ldi	r25, 0x00	; 0
     af6:	88 0f       	add	r24, r24
     af8:	99 1f       	adc	r25, r25
     afa:	24 eb       	ldi	r18, 0xB4	; 180
     afc:	30 e0       	ldi	r19, 0x00	; 0
     afe:	f9 01       	movw	r30, r18
     b00:	e8 0f       	add	r30, r24
     b02:	f9 1f       	adc	r31, r25
     b04:	e4 91       	lpm	r30, Z+
     b06:	a7 e9       	ldi	r26, 0x97	; 151
     b08:	b0 e0       	ldi	r27, 0x00	; 0
     b0a:	ec 93       	st	X, r30
				IO.light[17] = pgm_read_byte(&( display[ (d%11)*2+1 ]));
     b0c:	01 96       	adiw	r24, 0x01	; 1
     b0e:	f9 01       	movw	r30, r18
     b10:	e8 0f       	add	r30, r24
     b12:	f9 1f       	adc	r31, r25
     b14:	e4 91       	lpm	r30, Z+
     b16:	12 96       	adiw	r26, 0x02	; 2
     b18:	ec 93       	st	X, r30
			}

			if(c == 5 || c == 7) 	//B & D 7seg
     b1a:	45 30       	cpi	r20, 0x05	; 5
     b1c:	11 f0       	breq	.+4      	; 0xb22 <UARTProcessIn+0x29e>
     b1e:	47 30       	cpi	r20, 0x07	; 7
     b20:	c1 f4       	brne	.+48     	; 0xb52 <UARTProcessIn+0x2ce>
			{
				IO.light[16] = pgm_read_byte(&( display[ (d%11)*2 ] ));
     b22:	81 2f       	mov	r24, r17
     b24:	6b e0       	ldi	r22, 0x0B	; 11
     b26:	0e 94 ef 0e 	call	0x1dde	; 0x1dde <__udivmodqi4>
     b2a:	89 2f       	mov	r24, r25
     b2c:	90 e0       	ldi	r25, 0x00	; 0
     b2e:	88 0f       	add	r24, r24
     b30:	99 1f       	adc	r25, r25
     b32:	24 eb       	ldi	r18, 0xB4	; 180
     b34:	30 e0       	ldi	r19, 0x00	; 0
     b36:	f9 01       	movw	r30, r18
     b38:	e8 0f       	add	r30, r24
     b3a:	f9 1f       	adc	r31, r25
     b3c:	e4 91       	lpm	r30, Z+
     b3e:	a8 e9       	ldi	r26, 0x98	; 152
     b40:	b0 e0       	ldi	r27, 0x00	; 0
     b42:	ec 93       	st	X, r30
				IO.light[18] = pgm_read_byte(&( display[ (d%11)*2+1 ]));
     b44:	01 96       	adiw	r24, 0x01	; 1
     b46:	f9 01       	movw	r30, r18
     b48:	e8 0f       	add	r30, r24
     b4a:	f9 1f       	adc	r31, r25
     b4c:	e4 91       	lpm	r30, Z+
     b4e:	12 96       	adiw	r26, 0x02	; 2
     b50:	ec 93       	st	X, r30
			}

			if(c == 8 || c == 10) 	//A & C volume bar
     b52:	48 30       	cpi	r20, 0x08	; 8
     b54:	11 f0       	breq	.+4      	; 0xb5a <UARTProcessIn+0x2d6>
     b56:	4a 30       	cpi	r20, 0x0A	; 10
     b58:	31 f4       	brne	.+12     	; 0xb66 <UARTProcessIn+0x2e2>
				OutBuf.levelLeft  = d%10;
     b5a:	81 2f       	mov	r24, r17
     b5c:	6a e0       	ldi	r22, 0x0A	; 10
     b5e:	0e 94 ef 0e 	call	0x1dde	; 0x1dde <__udivmodqi4>
     b62:	90 93 82 00 	sts	0x0082, r25

			if(c == 9 || c == 11)	//B & D volume bar
     b66:	49 30       	cpi	r20, 0x09	; 9
     b68:	11 f0       	breq	.+4      	; 0xb6e <UARTProcessIn+0x2ea>
     b6a:	4b 30       	cpi	r20, 0x0B	; 11
     b6c:	31 f4       	brne	.+12     	; 0xb7a <UARTProcessIn+0x2f6>
				OutBuf.levelRight = d%10;
     b6e:	81 2f       	mov	r24, r17
     b70:	6a e0       	ldi	r22, 0x0A	; 10
     b72:	0e 94 ef 0e 	call	0x1dde	; 0x1dde <__udivmodqi4>
     b76:	90 93 83 00 	sts	0x0083, r25
		}

		//RGB
		if(((b & 0x0F) == 4) || ((b & 0x0F) == 5) ) //ch5 & ch6
     b7a:	85 2f       	mov	r24, r21
     b7c:	90 e0       	ldi	r25, 0x00	; 0
     b7e:	8f 70       	andi	r24, 0x0F	; 15
     b80:	90 70       	andi	r25, 0x00	; 0
     b82:	04 97       	sbiw	r24, 0x04	; 4
     b84:	02 97       	sbiw	r24, 0x02	; 2
     b86:	40 f5       	brcc	.+80     	; 0xbd8 <UARTProcessIn+0x354>
		{
			IO.RGB[c].R = pgm_read_byte(&(RGBmass[0][d%7]));
     b88:	50 e0       	ldi	r21, 0x00	; 0
     b8a:	ca ec       	ldi	r28, 0xCA	; 202
     b8c:	d0 e0       	ldi	r29, 0x00	; 0
     b8e:	81 2f       	mov	r24, r17
     b90:	67 e0       	ldi	r22, 0x07	; 7
     b92:	0e 94 ef 0e 	call	0x1dde	; 0x1dde <__udivmodqi4>
     b96:	29 2f       	mov	r18, r25
     b98:	30 e0       	ldi	r19, 0x00	; 0
     b9a:	fe 01       	movw	r30, r28
     b9c:	e2 0f       	add	r30, r18
     b9e:	f3 1f       	adc	r31, r19
     ba0:	e4 91       	lpm	r30, Z+
     ba2:	da 01       	movw	r26, r20
     ba4:	aa 0f       	add	r26, r26
     ba6:	bb 1f       	adc	r27, r27
     ba8:	a4 0f       	add	r26, r20
     baa:	b5 1f       	adc	r27, r21
     bac:	a8 57       	subi	r26, 0x78	; 120
     bae:	bf 4f       	sbci	r27, 0xFF	; 255
     bb0:	92 96       	adiw	r26, 0x22	; 34
     bb2:	ec 93       	st	X, r30
     bb4:	92 97       	sbiw	r26, 0x22	; 34
			IO.RGB[c].G = pgm_read_byte(&(RGBmass[1][d%7]));
     bb6:	c9 01       	movw	r24, r18
     bb8:	07 96       	adiw	r24, 0x07	; 7
     bba:	fe 01       	movw	r30, r28
     bbc:	e8 0f       	add	r30, r24
     bbe:	f9 1f       	adc	r31, r25
     bc0:	e4 91       	lpm	r30, Z+
     bc2:	93 96       	adiw	r26, 0x23	; 35
     bc4:	ec 93       	st	X, r30
     bc6:	93 97       	sbiw	r26, 0x23	; 35
			IO.RGB[c].B = pgm_read_byte(&(RGBmass[2][d%7]));
     bc8:	22 5f       	subi	r18, 0xF2	; 242
     bca:	3f 4f       	sbci	r19, 0xFF	; 255
     bcc:	fe 01       	movw	r30, r28
     bce:	e2 0f       	add	r30, r18
     bd0:	f3 1f       	adc	r31, r19
     bd2:	e4 91       	lpm	r30, Z+
     bd4:	94 96       	adiw	r26, 0x24	; 36
     bd6:	ec 93       	st	X, r30
	    y=d%10;
	   	WriteDigit_1621(12,y,1);
	#endif

	}
}
     bd8:	df 91       	pop	r29
     bda:	cf 91       	pop	r28
     bdc:	1f 91       	pop	r17
     bde:	08 95       	ret

00000be0 <main>:
/*******************************************************************************
* Function Name  : main
* Description    : Main routine
*******************************************************************************/
int main(void)
{
     be0:	2f 92       	push	r2
     be2:	3f 92       	push	r3
     be4:	4f 92       	push	r4
     be6:	5f 92       	push	r5
     be8:	6f 92       	push	r6
     bea:	7f 92       	push	r7
     bec:	8f 92       	push	r8
     bee:	9f 92       	push	r9
     bf0:	af 92       	push	r10
     bf2:	bf 92       	push	r11
     bf4:	cf 92       	push	r12
     bf6:	df 92       	push	r13
     bf8:	ef 92       	push	r14
     bfa:	ff 92       	push	r15
     bfc:	0f 93       	push	r16
     bfe:	1f 93       	push	r17
     c00:	cf 93       	push	r28
     c02:	df 93       	push	r29
	HardwareInit();
     c04:	0e 94 33 03 	call	0x666	; 0x666 <HardwareInit>
	ResetIO(&IO);
     c08:	88 e8       	ldi	r24, 0x88	; 136
     c0a:	90 e0       	ldi	r25, 0x00	; 0
     c0c:	0e 94 c3 06 	call	0xd86	; 0xd86 <ResetIO>
	SendCmd(SYSEN); //start system oscillator 
	SendCmd(LCDON); //switch on LCD bias generator 
	SendCmd(TONE2K);
#endif

	sei();					//enable interrupts
     c10:	78 94       	sei
	ADCSRA |= (1<<ADSC);	//start ADC
     c12:	e6 e2       	ldi	r30, 0x26	; 38
     c14:	f0 e0       	ldi	r31, 0x00	; 0
     c16:	80 81       	ld	r24, Z
     c18:	80 64       	ori	r24, 0x40	; 64
     c1a:	80 83       	st	Z, r24

	for (;;) 	
	{		
		wdt_reset();
		
		ProcessIO(&IO);
     c1c:	0f 2e       	mov	r0, r31
     c1e:	f8 e8       	ldi	r31, 0x88	; 136
     c20:	8f 2e       	mov	r8, r31
     c22:	f0 e0       	ldi	r31, 0x00	; 0
     c24:	9f 2e       	mov	r9, r31
     c26:	f0 2d       	mov	r31, r0
		ProcessOutBuf(&OutBuf, &IO);			
     c28:	0f 2e       	mov	r0, r31
     c2a:	f0 e8       	ldi	r31, 0x80	; 128
     c2c:	4f 2e       	mov	r4, r31
     c2e:	f0 e0       	ldi	r31, 0x00	; 0
     c30:	5f 2e       	mov	r5, r31
     c32:	f0 2d       	mov	r31, r0
		//BLINK
		static uint16_t R=0;

		if(++R >= 80)  
		{ 
			if( IO.Flash == 0 ) IO.Flash = 255;
     c34:	0f 2e       	mov	r0, r31
     c36:	fc e0       	ldi	r31, 0x0C	; 12
     c38:	6f 2e       	mov	r6, r31
     c3a:	f1 e0       	ldi	r31, 0x01	; 1
     c3c:	7f 2e       	mov	r7, r31
     c3e:	f0 2d       	mov	r31, r0
		if(R == 160) 			IO.Blink = 255;

		if(R == 170) 
		{
			R = 0; 
			IO.Blink = 0; 
     c40:	0f 2e       	mov	r0, r31
     c42:	fd e0       	ldi	r31, 0x0D	; 13
     c44:	2f 2e       	mov	r2, r31
     c46:	f1 e0       	ldi	r31, 0x01	; 1
     c48:	3f 2e       	mov	r3, r31
     c4a:	f0 2d       	mov	r31, r0
     c4c:	ee 24       	eor	r14, r14
		uint8_t touchCnt[2] = {0,0};

		for(uint8_t i=0; i<50; i++)
		{
			//Right jog touch
			BitSet(DDRD, 6);
     c4e:	c1 e3       	ldi	r28, 0x31	; 49
     c50:	d0 e0       	ldi	r29, 0x00	; 0
			BitReset(PORTD, 6);  
     c52:	02 e3       	ldi	r16, 0x32	; 50
     c54:	10 e0       	ldi	r17, 0x00	; 0
    milliseconds can be achieved.
 */
void
_delay_loop_2(uint16_t __count)
{
	__asm__ volatile (
     c56:	0f 2e       	mov	r0, r31
     c58:	fc e0       	ldi	r31, 0x0C	; 12
     c5a:	af 2e       	mov	r10, r31
     c5c:	bb 24       	eor	r11, r11
     c5e:	f0 2d       	mov	r31, r0
			BitReset(DDRD, 2); 
			//BitSet(PORTD, 2); //comment if use 1MOhm resistor pull up

			_delay_loop_2(12);//15

			if(BitIsReset(PIND, 6)) touchCnt[0]++;
     c60:	0f 2e       	mov	r0, r31
     c62:	f0 e3       	ldi	r31, 0x30	; 48
     c64:	cf 2e       	mov	r12, r31
     c66:	dd 24       	eor	r13, r13
     c68:	f0 2d       	mov	r31, r0
	ADCSRA |= (1<<ADSC);	//start ADC


	for (;;) 	
	{		
		wdt_reset();
     c6a:	a8 95       	wdr
		
		ProcessIO(&IO);
     c6c:	c4 01       	movw	r24, r8
     c6e:	0e 94 18 07 	call	0xe30	; 0xe30 <ProcessIO>
		ProcessOutBuf(&OutBuf, &IO);			
     c72:	c2 01       	movw	r24, r4
     c74:	b4 01       	movw	r22, r8
     c76:	0e 94 db 0a 	call	0x15b6	; 0x15b6 <ProcessOutBuf>

		UARTProcessIn();
     c7a:	0e 94 42 04 	call	0x884	; 0x884 <UARTProcessIn>
		UARTProcessOut();
     c7e:	0e 94 26 01 	call	0x24c	; 0x24c <UARTProcessOut>


		//BLINK
		static uint16_t R=0;

		if(++R >= 80)  
     c82:	80 91 78 00 	lds	r24, 0x0078
     c86:	90 91 79 00 	lds	r25, 0x0079
     c8a:	9c 01       	movw	r18, r24
     c8c:	2f 5f       	subi	r18, 0xFF	; 255
     c8e:	3f 4f       	sbci	r19, 0xFF	; 255
     c90:	30 93 79 00 	sts	0x0079, r19
     c94:	20 93 78 00 	sts	0x0078, r18
     c98:	20 35       	cpi	r18, 0x50	; 80
     c9a:	31 05       	cpc	r19, r1
     c9c:	48 f0       	brcs	.+18     	; 0xcb0 <main+0xd0>
		{ 
			if( IO.Flash == 0 ) IO.Flash = 255;
     c9e:	f3 01       	movw	r30, r6
     ca0:	80 81       	ld	r24, Z
     ca2:	88 23       	and	r24, r24
     ca4:	19 f4       	brne	.+6      	; 0xcac <main+0xcc>
     ca6:	8f ef       	ldi	r24, 0xFF	; 255
     ca8:	80 83       	st	Z, r24
     caa:	02 c0       	rjmp	.+4      	; 0xcb0 <main+0xd0>
			else 				IO.Flash = 0;
     cac:	f3 01       	movw	r30, r6
     cae:	10 82       	st	Z, r1
		}

		if(R == 160) 			IO.Blink = 255;
     cb0:	20 3a       	cpi	r18, 0xA0	; 160
     cb2:	31 05       	cpc	r19, r1
     cb4:	21 f4       	brne	.+8      	; 0xcbe <main+0xde>
     cb6:	8f ef       	ldi	r24, 0xFF	; 255
     cb8:	f1 01       	movw	r30, r2
     cba:	80 83       	st	Z, r24
     cbc:	09 c0       	rjmp	.+18     	; 0xcd0 <main+0xf0>

		if(R == 170) 
     cbe:	2a 3a       	cpi	r18, 0xAA	; 170
     cc0:	31 05       	cpc	r19, r1
     cc2:	31 f4       	brne	.+12     	; 0xcd0 <main+0xf0>
		{
			R = 0; 
     cc4:	10 92 79 00 	sts	0x0079, r1
     cc8:	10 92 78 00 	sts	0x0078, r1
			IO.Blink = 0; 
     ccc:	f1 01       	movw	r30, r2
     cce:	10 82       	st	Z, r1
     cd0:	2e 2d       	mov	r18, r14
     cd2:	fe 2c       	mov	r15, r14
     cd4:	3e 2d       	mov	r19, r14
		uint8_t touchCnt[2] = {0,0};

		for(uint8_t i=0; i<50; i++)
		{
			//Right jog touch
			BitSet(DDRD, 6);
     cd6:	88 81       	ld	r24, Y
     cd8:	80 64       	ori	r24, 0x40	; 64
     cda:	88 83       	st	Y, r24
			BitReset(PORTD, 6);  
     cdc:	f8 01       	movw	r30, r16
     cde:	80 81       	ld	r24, Z
     ce0:	8f 7b       	andi	r24, 0xBF	; 191
     ce2:	80 83       	st	Z, r24
			BitReset(DDRD, 6); 
     ce4:	88 81       	ld	r24, Y
     ce6:	8f 7b       	andi	r24, 0xBF	; 191
     ce8:	88 83       	st	Y, r24
			//BitSet(PORTD, 6); //comment if use 1MOhm resistor pull up

			//Left Jog touch
			BitSet(DDRD, 2);
     cea:	88 81       	ld	r24, Y
     cec:	84 60       	ori	r24, 0x04	; 4
     cee:	88 83       	st	Y, r24
			BitReset(PORTD, 2);  
     cf0:	80 81       	ld	r24, Z
     cf2:	8b 7f       	andi	r24, 0xFB	; 251
     cf4:	80 83       	st	Z, r24
			BitReset(DDRD, 2); 
     cf6:	88 81       	ld	r24, Y
     cf8:	8b 7f       	andi	r24, 0xFB	; 251
     cfa:	88 83       	st	Y, r24
     cfc:	c5 01       	movw	r24, r10
     cfe:	01 97       	sbiw	r24, 0x01	; 1
     d00:	f1 f7       	brne	.-4      	; 0xcfe <main+0x11e>
			//BitSet(PORTD, 2); //comment if use 1MOhm resistor pull up

			_delay_loop_2(12);//15

			if(BitIsReset(PIND, 6)) touchCnt[0]++;
     d02:	f6 01       	movw	r30, r12
     d04:	80 81       	ld	r24, Z
     d06:	86 ff       	sbrs	r24, 6
     d08:	3f 5f       	subi	r19, 0xFF	; 255
			if(BitIsReset(PIND, 2)) touchCnt[1]++;
     d0a:	f6 01       	movw	r30, r12
     d0c:	80 81       	ld	r24, Z
     d0e:	82 ff       	sbrs	r24, 2
     d10:	f3 94       	inc	r15
	
		//JOG TOUCH	
		static uint8_t touchKey = 0;
		uint8_t touchCnt[2] = {0,0};

		for(uint8_t i=0; i<50; i++)
     d12:	2f 5f       	subi	r18, 0xFF	; 255
     d14:	22 33       	cpi	r18, 0x32	; 50
     d16:	f9 f6       	brne	.-66     	; 0xcd6 <main+0xf6>

			if(BitIsReset(PIND, 6)) touchCnt[0]++;
			if(BitIsReset(PIND, 2)) touchCnt[1]++;
		}
    
	    if(touchCnt[0])
     d18:	33 23       	and	r19, r19
     d1a:	69 f0       	breq	.+26     	; 0xd36 <main+0x156>
		{
			if(BitIsReset(touchKey, 0))
     d1c:	80 91 77 00 	lds	r24, 0x0077
     d20:	80 fd       	sbrc	r24, 0
     d22:	15 c0       	rjmp	.+42     	; 0xd4e <main+0x16e>
			{
				BitSet(touchKey, 0);
     d24:	81 60       	ori	r24, 0x01	; 1
     d26:	80 93 77 00 	sts	0x0077, r24
				MidiAddMsg(0x91, 32, MIDI_MAX);
     d2a:	81 e9       	ldi	r24, 0x91	; 145
     d2c:	60 e2       	ldi	r22, 0x20	; 32
     d2e:	4f e7       	ldi	r20, 0x7F	; 127
     d30:	0e 94 5f 01 	call	0x2be	; 0x2be <MidiAddMsg>
     d34:	0c c0       	rjmp	.+24     	; 0xd4e <main+0x16e>
			}
		}             
	    else                    
	    {
			if(BitIsSet(touchKey, 0))
     d36:	80 91 77 00 	lds	r24, 0x0077
     d3a:	80 ff       	sbrs	r24, 0
     d3c:	08 c0       	rjmp	.+16     	; 0xd4e <main+0x16e>
			{
				BitReset(touchKey, 0);
     d3e:	8e 7f       	andi	r24, 0xFE	; 254
     d40:	80 93 77 00 	sts	0x0077, r24
				MidiAddMsg(0x81, 32, MIDI_MAX);
     d44:	81 e8       	ldi	r24, 0x81	; 129
     d46:	60 e2       	ldi	r22, 0x20	; 32
     d48:	4f e7       	ldi	r20, 0x7F	; 127
     d4a:	0e 94 5f 01 	call	0x2be	; 0x2be <MidiAddMsg>
			}
		}


	    if(touchCnt[1])
     d4e:	ff 20       	and	r15, r15
     d50:	69 f0       	breq	.+26     	; 0xd6c <main+0x18c>
		{
			if(BitIsReset(touchKey, 1))
     d52:	80 91 77 00 	lds	r24, 0x0077
     d56:	81 fd       	sbrc	r24, 1
     d58:	88 cf       	rjmp	.-240    	; 0xc6a <main+0x8a>
			{
				BitSet(touchKey, 1);
     d5a:	82 60       	ori	r24, 0x02	; 2
     d5c:	80 93 77 00 	sts	0x0077, r24
				MidiAddMsg(0x90, 32, MIDI_MAX);
     d60:	80 e9       	ldi	r24, 0x90	; 144
     d62:	60 e2       	ldi	r22, 0x20	; 32
     d64:	4f e7       	ldi	r20, 0x7F	; 127
     d66:	0e 94 5f 01 	call	0x2be	; 0x2be <MidiAddMsg>
     d6a:	7f cf       	rjmp	.-258    	; 0xc6a <main+0x8a>
			}
		}             
	    else                    
	    {
			if(BitIsSet(touchKey, 1))
     d6c:	80 91 77 00 	lds	r24, 0x0077
     d70:	81 ff       	sbrs	r24, 1
     d72:	7b cf       	rjmp	.-266    	; 0xc6a <main+0x8a>
			{
				BitReset(touchKey, 1);
     d74:	8d 7f       	andi	r24, 0xFD	; 253
     d76:	80 93 77 00 	sts	0x0077, r24
				MidiAddMsg(0x80, 32, MIDI_MAX);
     d7a:	80 e8       	ldi	r24, 0x80	; 128
     d7c:	60 e2       	ldi	r22, 0x20	; 32
     d7e:	4f e7       	ldi	r20, 0x7F	; 127
     d80:	0e 94 5f 01 	call	0x2be	; 0x2be <MidiAddMsg>
     d84:	72 cf       	rjmp	.-284    	; 0xc6a <main+0x8a>

00000d86 <ResetIO>:
* Function Name  : ResetIO
* Description    : Reset all input/output data
* Input          : pointer to IO structure
*******************************************************************************/
void ResetIO(struct IOtype *IO)
{
     d86:	dc 01       	movw	r26, r24
	for(uint8_t i=0; i<5; i++) 
		IO->buttons[i] = 0;
     d88:	db 96       	adiw	r26, 0x3b	; 59
     d8a:	1c 92       	st	X, r1
     d8c:	1e 92       	st	-X, r1
     d8e:	da 97       	sbiw	r26, 0x3a	; 58
     d90:	dd 96       	adiw	r26, 0x3d	; 61
     d92:	1c 92       	st	X, r1
     d94:	1e 92       	st	-X, r1
     d96:	dc 97       	sbiw	r26, 0x3c	; 60
     d98:	df 96       	adiw	r26, 0x3f	; 63
     d9a:	1c 92       	st	X, r1
     d9c:	1e 92       	st	-X, r1
     d9e:	de 97       	sbiw	r26, 0x3e	; 62
     da0:	fc 01       	movw	r30, r24
     da2:	e0 5c       	subi	r30, 0xC0	; 192
     da4:	ff 4f       	sbci	r31, 0xFF	; 255
     da6:	11 82       	std	Z+1, r1	; 0x01
     da8:	10 82       	st	Z, r1
     daa:	fc 01       	movw	r30, r24
     dac:	ee 5b       	subi	r30, 0xBE	; 190
     dae:	ff 4f       	sbci	r31, 0xFF	; 255
     db0:	11 82       	std	Z+1, r1	; 0x01
     db2:	10 82       	st	Z, r1
     db4:	80 e0       	ldi	r24, 0x00	; 0
     db6:	90 e0       	ldi	r25, 0x00	; 0

	for(uint8_t i=0; i<20; i++) 
		IO->light[i] = 0;
     db8:	fd 01       	movw	r30, r26
     dba:	e8 0f       	add	r30, r24
     dbc:	f9 1f       	adc	r31, r25
     dbe:	10 82       	st	Z, r1
     dc0:	01 96       	adiw	r24, 0x01	; 1
void ResetIO(struct IOtype *IO)
{
	for(uint8_t i=0; i<5; i++) 
		IO->buttons[i] = 0;

	for(uint8_t i=0; i<20; i++) 
     dc2:	84 31       	cpi	r24, 0x14	; 20
     dc4:	91 05       	cpc	r25, r1
     dc6:	c1 f7       	brne	.-16     	; 0xdb8 <ResetIO+0x32>
     dc8:	fd 01       	movw	r30, r26
     dca:	b2 96       	adiw	r30, 0x22	; 34
     dcc:	80 e0       	ldi	r24, 0x00	; 0
		IO->light[i] = 0;

	for(uint8_t i=0; i<8; i++) 
		IO->RGB[i].R = IO->RGB[i].G = IO->RGB[i].B = 0;
     dce:	12 82       	std	Z+2, r1	; 0x02
     dd0:	11 82       	std	Z+1, r1	; 0x01
     dd2:	10 82       	st	Z, r1
		IO->buttons[i] = 0;

	for(uint8_t i=0; i<20; i++) 
		IO->light[i] = 0;

	for(uint8_t i=0; i<8; i++) 
     dd4:	8f 5f       	subi	r24, 0xFF	; 255
     dd6:	33 96       	adiw	r30, 0x03	; 3
     dd8:	88 30       	cpi	r24, 0x08	; 8
     dda:	c9 f7       	brne	.-14     	; 0xdce <ResetIO+0x48>
     ddc:	fd 01       	movw	r30, r26
     dde:	80 e0       	ldi	r24, 0x00	; 0
		IO->RGB[i].R = IO->RGB[i].G = IO->RGB[i].B = 0;

	for(uint8_t i=0; i<7; i++) 
		IO->lightIN[i] = IO->lightFL[i] = 0;
     de0:	13 8e       	std	Z+27, r1	; 0x1b
     de2:	14 8a       	std	Z+20, r1	; 0x14
		IO->light[i] = 0;

	for(uint8_t i=0; i<8; i++) 
		IO->RGB[i].R = IO->RGB[i].G = IO->RGB[i].B = 0;

	for(uint8_t i=0; i<7; i++) 
     de4:	8f 5f       	subi	r24, 0xFF	; 255
     de6:	31 96       	adiw	r30, 0x01	; 1
     de8:	87 30       	cpi	r24, 0x07	; 7
     dea:	d1 f7       	brne	.-12     	; 0xde0 <ResetIO+0x5a>
		IO->lightIN[i] = IO->lightFL[i] = 0;
}
     dec:	08 95       	ret

00000dee <SetIO>:
* Function Name  : SetIO
* Description    : Set all input/output data
* Input          : pointer to IO structure
*******************************************************************************/
void SetIO(struct IOtype *IO)
{
     dee:	20 e0       	ldi	r18, 0x00	; 0
     df0:	30 e0       	ldi	r19, 0x00	; 0
	for(uint8_t i=0; i<20; i++) 
		IO->light[i] = 0xFF;
     df2:	4f ef       	ldi	r20, 0xFF	; 255
     df4:	fc 01       	movw	r30, r24
     df6:	e2 0f       	add	r30, r18
     df8:	f3 1f       	adc	r31, r19
     dfa:	40 83       	st	Z, r20
     dfc:	2f 5f       	subi	r18, 0xFF	; 255
     dfe:	3f 4f       	sbci	r19, 0xFF	; 255
* Description    : Set all input/output data
* Input          : pointer to IO structure
*******************************************************************************/
void SetIO(struct IOtype *IO)
{
	for(uint8_t i=0; i<20; i++) 
     e00:	24 31       	cpi	r18, 0x14	; 20
     e02:	31 05       	cpc	r19, r1
     e04:	b9 f7       	brne	.-18     	; 0xdf4 <SetIO+0x6>
     e06:	fc 01       	movw	r30, r24
     e08:	b2 96       	adiw	r30, 0x22	; 34
     e0a:	20 e0       	ldi	r18, 0x00	; 0
		IO->light[i] = 0xFF;
	
	for(uint8_t i=0; i<8; i++) 
		IO->RGB[i].R = IO->RGB[i].G = IO->RGB[i].B = 0xFF;
     e0c:	3f ef       	ldi	r19, 0xFF	; 255
     e0e:	32 83       	std	Z+2, r19	; 0x02
     e10:	31 83       	std	Z+1, r19	; 0x01
     e12:	30 83       	st	Z, r19
void SetIO(struct IOtype *IO)
{
	for(uint8_t i=0; i<20; i++) 
		IO->light[i] = 0xFF;
	
	for(uint8_t i=0; i<8; i++) 
     e14:	2f 5f       	subi	r18, 0xFF	; 255
     e16:	33 96       	adiw	r30, 0x03	; 3
     e18:	28 30       	cpi	r18, 0x08	; 8
     e1a:	c9 f7       	brne	.-14     	; 0xe0e <SetIO+0x20>
     e1c:	fc 01       	movw	r30, r24
     e1e:	80 e0       	ldi	r24, 0x00	; 0
		IO->RGB[i].R = IO->RGB[i].G = IO->RGB[i].B = 0xFF;

	for(uint8_t i=0; i<7; i++) 
		IO->lightIN[i] = IO->lightFL[i] = 0xFF;
     e20:	9f ef       	ldi	r25, 0xFF	; 255
     e22:	93 8f       	std	Z+27, r25	; 0x1b
     e24:	94 8b       	std	Z+20, r25	; 0x14
		IO->light[i] = 0xFF;
	
	for(uint8_t i=0; i<8; i++) 
		IO->RGB[i].R = IO->RGB[i].G = IO->RGB[i].B = 0xFF;

	for(uint8_t i=0; i<7; i++) 
     e26:	8f 5f       	subi	r24, 0xFF	; 255
     e28:	31 96       	adiw	r30, 0x01	; 1
     e2a:	87 30       	cpi	r24, 0x07	; 7
     e2c:	d1 f7       	brne	.-12     	; 0xe22 <SetIO+0x34>
		IO->lightIN[i] = IO->lightFL[i] = 0xFF;
}
     e2e:	08 95       	ret

00000e30 <ProcessIO>:
* Function Name  : ProcessIO
* Description    : HAL: indication and buttons scan
* Input          : pointer to IO structure
*******************************************************************************/
void ProcessIO(struct IOtype *IO)
{
     e30:	bc 01       	movw	r22, r24

//8 quant operations
	static uint8_t number5 = 0, number8 = 0;

	if(adcEnd == 0)
     e32:	80 91 60 00 	lds	r24, 0x0060
     e36:	88 23       	and	r24, r24
     e38:	09 f0       	breq	.+2      	; 0xe3c <ProcessIO+0xc>
     e3a:	a5 c0       	rjmp	.+330    	; 0xf86 <ProcessIO+0x156>
	{
		if(++number8 >= 8) number8 = 0;
     e3c:	80 91 7c 00 	lds	r24, 0x007C
     e40:	8f 5f       	subi	r24, 0xFF	; 255
     e42:	80 93 7c 00 	sts	0x007C, r24
     e46:	88 30       	cpi	r24, 0x08	; 8
     e48:	28 f0       	brcs	.+10     	; 0xe54 <ProcessIO+0x24>
     e4a:	10 92 7c 00 	sts	0x007C, r1
     e4e:	20 e0       	ldi	r18, 0x00	; 0
     e50:	30 e0       	ldi	r19, 0x00	; 0
     e52:	0b c0       	rjmp	.+22     	; 0xe6a <ProcessIO+0x3a>

		//DC	
		BitWrite((number8 & 1),PORTC,1);
     e54:	28 2f       	mov	r18, r24
     e56:	30 e0       	ldi	r19, 0x00	; 0
     e58:	80 ff       	sbrs	r24, 0
     e5a:	07 c0       	rjmp	.+14     	; 0xe6a <ProcessIO+0x3a>
     e5c:	e5 e3       	ldi	r30, 0x35	; 53
     e5e:	f0 e0       	ldi	r31, 0x00	; 0
     e60:	80 81       	ld	r24, Z
     e62:	82 60       	ori	r24, 0x02	; 2
     e64:	80 83       	st	Z, r24
     e66:	e0 81       	ld	r30, Z
     e68:	06 c0       	rjmp	.+12     	; 0xe76 <ProcessIO+0x46>
     e6a:	e5 e3       	ldi	r30, 0x35	; 53
     e6c:	f0 e0       	ldi	r31, 0x00	; 0
     e6e:	80 81       	ld	r24, Z
     e70:	8d 7f       	andi	r24, 0xFD	; 253
     e72:	80 83       	st	Z, r24
     e74:	e0 81       	ld	r30, Z
		BitWrite((number8 & 2),PORTC,5);
     e76:	21 ff       	sbrs	r18, 1
     e78:	07 c0       	rjmp	.+14     	; 0xe88 <ProcessIO+0x58>
     e7a:	e5 e3       	ldi	r30, 0x35	; 53
     e7c:	f0 e0       	ldi	r31, 0x00	; 0
     e7e:	80 81       	ld	r24, Z
     e80:	80 62       	ori	r24, 0x20	; 32
     e82:	80 83       	st	Z, r24
     e84:	e0 81       	ld	r30, Z
     e86:	06 c0       	rjmp	.+12     	; 0xe94 <ProcessIO+0x64>
     e88:	e5 e3       	ldi	r30, 0x35	; 53
     e8a:	f0 e0       	ldi	r31, 0x00	; 0
     e8c:	80 81       	ld	r24, Z
     e8e:	8f 7d       	andi	r24, 0xDF	; 223
     e90:	80 83       	st	Z, r24
     e92:	e0 81       	ld	r30, Z
		BitWrite((number8 & 4),PORTC,7);
     e94:	22 ff       	sbrs	r18, 2
     e96:	07 c0       	rjmp	.+14     	; 0xea6 <ProcessIO+0x76>
     e98:	e5 e3       	ldi	r30, 0x35	; 53
     e9a:	f0 e0       	ldi	r31, 0x00	; 0
     e9c:	80 81       	ld	r24, Z
     e9e:	80 68       	ori	r24, 0x80	; 128
     ea0:	80 83       	st	Z, r24
     ea2:	e0 81       	ld	r30, Z
     ea4:	06 c0       	rjmp	.+12     	; 0xeb2 <ProcessIO+0x82>
     ea6:	e5 e3       	ldi	r30, 0x35	; 53
     ea8:	f0 e0       	ldi	r31, 0x00	; 0
     eaa:	80 81       	ld	r24, Z
     eac:	8f 77       	andi	r24, 0x7F	; 127
     eae:	80 83       	st	Z, r24
     eb0:	e0 81       	ld	r30, Z

		//RGB backlight
		OCR1B = IO->RGB[number8].R;
     eb2:	c9 01       	movw	r24, r18
     eb4:	88 0f       	add	r24, r24
     eb6:	99 1f       	adc	r25, r25
     eb8:	82 0f       	add	r24, r18
     eba:	93 1f       	adc	r25, r19
     ebc:	fb 01       	movw	r30, r22
     ebe:	e8 0f       	add	r30, r24
     ec0:	f9 1f       	adc	r31, r25
     ec2:	82 a1       	ldd	r24, Z+34	; 0x22
     ec4:	90 e0       	ldi	r25, 0x00	; 0
     ec6:	99 bd       	out	0x29, r25	; 41
     ec8:	88 bd       	out	0x28, r24	; 40
		OCR2  = IO->RGB[number8].G;
     eca:	83 a1       	ldd	r24, Z+35	; 0x23
     ecc:	83 bd       	out	0x23, r24	; 35
		OCR1A = IO->RGB[number8].B;
     ece:	84 a1       	ldd	r24, Z+36	; 0x24
     ed0:	90 e0       	ldi	r25, 0x00	; 0
     ed2:	9b bd       	out	0x2b, r25	; 43
     ed4:	8a bd       	out	0x2a, r24	; 42

		//ADC
		if(cX == 16)
     ed6:	80 91 7b 00 	lds	r24, 0x007B
     eda:	80 31       	cpi	r24, 0x10	; 16
     edc:	a1 f4       	brne	.+40     	; 0xf06 <ProcessIO+0xd6>
		{ 
			IO->currFader[24] = adcX >> 4; 
     ede:	80 91 e7 01 	lds	r24, 0x01E7
     ee2:	90 91 e8 01 	lds	r25, 0x01E8
     ee6:	fb 01       	movw	r30, r22
     ee8:	eb 58       	subi	r30, 0x8B	; 139
     eea:	ff 4f       	sbci	r31, 0xFF	; 255
     eec:	92 95       	swap	r25
     eee:	82 95       	swap	r24
     ef0:	8f 70       	andi	r24, 0x0F	; 15
     ef2:	89 27       	eor	r24, r25
     ef4:	9f 70       	andi	r25, 0x0F	; 15
     ef6:	89 27       	eor	r24, r25
     ef8:	80 83       	st	Z, r24
			cX = 0; 
     efa:	10 92 7b 00 	sts	0x007B, r1
			adcX = 0;
     efe:	10 92 e8 01 	sts	0x01E8, r1
     f02:	10 92 e7 01 	sts	0x01E7, r1
		}
		//IO->currFader[24] = adcX;

		IO->currFader[number8] 	 = adcA;
     f06:	20 91 e5 01 	lds	r18, 0x01E5
     f0a:	30 91 e6 01 	lds	r19, 0x01E6
     f0e:	80 91 7c 00 	lds	r24, 0x007C
     f12:	fb 01       	movw	r30, r22
     f14:	e8 0f       	add	r30, r24
     f16:	f1 1d       	adc	r31, r1
     f18:	e3 5a       	subi	r30, 0xA3	; 163
     f1a:	ff 4f       	sbci	r31, 0xFF	; 255
     f1c:	20 83       	st	Z, r18
		IO->currFader[number8+8] = adcB;
     f1e:	20 91 e3 01 	lds	r18, 0x01E3
     f22:	30 91 e4 01 	lds	r19, 0x01E4
     f26:	80 91 7c 00 	lds	r24, 0x007C
     f2a:	fb 01       	movw	r30, r22
     f2c:	e8 0f       	add	r30, r24
     f2e:	f1 1d       	adc	r31, r1
     f30:	eb 59       	subi	r30, 0x9B	; 155
     f32:	ff 4f       	sbci	r31, 0xFF	; 255
     f34:	20 83       	st	Z, r18
		IO->currFader[number8+16]= adcC;
     f36:	20 91 e9 01 	lds	r18, 0x01E9
     f3a:	30 91 ea 01 	lds	r19, 0x01EA
     f3e:	80 91 7c 00 	lds	r24, 0x007C
     f42:	fb 01       	movw	r30, r22
     f44:	e8 0f       	add	r30, r24
     f46:	f1 1d       	adc	r31, r1
     f48:	e3 59       	subi	r30, 0x93	; 147
     f4a:	ff 4f       	sbci	r31, 0xFF	; 255
     f4c:	20 83       	st	Z, r18

		adcA = adcB = adcC = 0;
     f4e:	10 92 ea 01 	sts	0x01EA, r1
     f52:	10 92 e9 01 	sts	0x01E9, r1
     f56:	80 91 e9 01 	lds	r24, 0x01E9
     f5a:	90 91 ea 01 	lds	r25, 0x01EA
     f5e:	90 93 e4 01 	sts	0x01E4, r25
     f62:	80 93 e3 01 	sts	0x01E3, r24
     f66:	80 91 e3 01 	lds	r24, 0x01E3
     f6a:	90 91 e4 01 	lds	r25, 0x01E4
     f6e:	90 93 e6 01 	sts	0x01E6, r25
     f72:	80 93 e5 01 	sts	0x01E5, r24

		adcEnd = 4;
     f76:	84 e0       	ldi	r24, 0x04	; 4
     f78:	80 93 60 00 	sts	0x0060, r24
		ADCSRA |= (1<<ADSC);
     f7c:	e6 e2       	ldi	r30, 0x26	; 38
     f7e:	f0 e0       	ldi	r31, 0x00	; 0
     f80:	80 81       	ld	r24, Z
     f82:	80 64       	ori	r24, 0x40	; 64
     f84:	80 83       	st	Z, r24


//5 quant operations

	//Shift registers
	BitReset(PORTB, 3);		//     165
     f86:	e8 e3       	ldi	r30, 0x38	; 56
     f88:	f0 e0       	ldi	r31, 0x00	; 0
     f8a:	80 81       	ld	r24, Z
     f8c:	87 7f       	andi	r24, 0xF7	; 247
     f8e:	80 83       	st	Z, r24
	asm("nop");
     f90:	00 00       	nop
	asm("nop");
     f92:	00 00       	nop
	BitSet(PORTB, 3);
     f94:	80 81       	ld	r24, Z
     f96:	88 60       	ori	r24, 0x08	; 8
     f98:	80 83       	st	Z, r24

	PORTC &= ~((1<<PC0)|(1<<PC2)|(1<<PC3)|(1<<PC4)|(1<<6));
     f9a:	e5 e3       	ldi	r30, 0x35	; 53
     f9c:	f0 e0       	ldi	r31, 0x00	; 0
     f9e:	80 81       	ld	r24, Z
     fa0:	82 7a       	andi	r24, 0xA2	; 162
     fa2:	80 83       	st	Z, r24
	IO->buttons[number5] = 0;
     fa4:	80 91 7d 00 	lds	r24, 0x007D
     fa8:	90 e0       	ldi	r25, 0x00	; 0
     faa:	4d 96       	adiw	r24, 0x1d	; 29
     fac:	88 0f       	add	r24, r24
     fae:	99 1f       	adc	r25, r25
     fb0:	fb 01       	movw	r30, r22
     fb2:	e8 0f       	add	r30, r24
     fb4:	f9 1f       	adc	r31, r25
     fb6:	11 82       	std	Z+1, r1	; 0x01
     fb8:	10 82       	st	Z, r1

	SPDR = ~(IO->light[number5+10]); 
     fba:	80 91 7d 00 	lds	r24, 0x007D
     fbe:	48 2f       	mov	r20, r24
     fc0:	50 e0       	ldi	r21, 0x00	; 0
     fc2:	fb 01       	movw	r30, r22
     fc4:	e4 0f       	add	r30, r20
     fc6:	f5 1f       	adc	r31, r21
     fc8:	82 85       	ldd	r24, Z+10	; 0x0a
     fca:	80 95       	com	r24
     fcc:	8f b9       	out	0x0f, r24	; 15
		while( !( SPSR & (1<<SPIF) ) ); //    "787878787" ******** ******** ********
     fce:	ee e2       	ldi	r30, 0x2E	; 46
     fd0:	f0 e0       	ldi	r31, 0x00	; 0
     fd2:	80 81       	ld	r24, Z
     fd4:	88 23       	and	r24, r24
     fd6:	ec f7       	brge	.-6      	; 0xfd2 <ProcessIO+0x1a2>
	IO->buttons[number5] |= SPDR; 
     fd8:	af e2       	ldi	r26, 0x2F	; 47
     fda:	b0 e0       	ldi	r27, 0x00	; 0
     fdc:	2c 91       	ld	r18, X
     fde:	ca 01       	movw	r24, r20
     fe0:	4d 96       	adiw	r24, 0x1d	; 29
     fe2:	88 0f       	add	r24, r24
     fe4:	99 1f       	adc	r25, r25
     fe6:	fb 01       	movw	r30, r22
     fe8:	e8 0f       	add	r30, r24
     fea:	f9 1f       	adc	r31, r25
     fec:	30 e0       	ldi	r19, 0x00	; 0
     fee:	80 81       	ld	r24, Z
     ff0:	91 81       	ldd	r25, Z+1	; 0x01
     ff2:	82 2b       	or	r24, r18
     ff4:	93 2b       	or	r25, r19
     ff6:	91 83       	std	Z+1, r25	; 0x01
     ff8:	80 83       	st	Z, r24
	
	SPDR = (IO->light[number5+15]); //7seg [15-18]
     ffa:	80 91 7d 00 	lds	r24, 0x007D
     ffe:	48 2f       	mov	r20, r24
    1000:	50 e0       	ldi	r21, 0x00	; 0
    1002:	fb 01       	movw	r30, r22
    1004:	e4 0f       	add	r30, r20
    1006:	f5 1f       	adc	r31, r21
    1008:	87 85       	ldd	r24, Z+15	; 0x0f
    100a:	8c 93       	st	X, r24
		while( !( SPSR & (1<<SPIF) ) ); //    ******** "787878787" ******** ********
    100c:	ee e2       	ldi	r30, 0x2E	; 46
    100e:	f0 e0       	ldi	r31, 0x00	; 0
    1010:	80 81       	ld	r24, Z
    1012:	88 23       	and	r24, r24
    1014:	ec f7       	brge	.-6      	; 0x1010 <ProcessIO+0x1e0>
	uint16_t A = SPDR << 8;
    1016:	af e2       	ldi	r26, 0x2F	; 47
    1018:	b0 e0       	ldi	r27, 0x00	; 0
    101a:	2c 91       	ld	r18, X
	IO->buttons[number5] |= A;	
    101c:	ca 01       	movw	r24, r20
    101e:	4d 96       	adiw	r24, 0x1d	; 29
    1020:	88 0f       	add	r24, r24
    1022:	99 1f       	adc	r25, r25
    1024:	fb 01       	movw	r30, r22
    1026:	e8 0f       	add	r30, r24
    1028:	f9 1f       	adc	r31, r25
    102a:	92 2f       	mov	r25, r18
    102c:	80 e0       	ldi	r24, 0x00	; 0
    102e:	20 81       	ld	r18, Z
    1030:	31 81       	ldd	r19, Z+1	; 0x01
    1032:	82 2b       	or	r24, r18
    1034:	93 2b       	or	r25, r19
    1036:	91 83       	std	Z+1, r25	; 0x01
    1038:	80 83       	st	Z, r24

	SPDR = ~(IO->light[number5+5]); //bar
    103a:	90 91 7d 00 	lds	r25, 0x007D
    103e:	29 2f       	mov	r18, r25
    1040:	30 e0       	ldi	r19, 0x00	; 0
    1042:	fb 01       	movw	r30, r22
    1044:	e2 0f       	add	r30, r18
    1046:	f3 1f       	adc	r31, r19
    1048:	85 81       	ldd	r24, Z+5	; 0x05
    104a:	80 95       	com	r24
    104c:	8c 93       	st	X, r24
		while( !( SPSR & (1<<SPIF) ) ); //    ******** ******** "787878787" ********
    104e:	ee e2       	ldi	r30, 0x2E	; 46
    1050:	f0 e0       	ldi	r31, 0x00	; 0
    1052:	80 81       	ld	r24, Z
    1054:	88 23       	and	r24, r24
    1056:	ec f7       	brge	.-6      	; 0x1052 <ProcessIO+0x222>

	SPDR = ~(IO->light[number5]);   //beginning
    1058:	fb 01       	movw	r30, r22
    105a:	e2 0f       	add	r30, r18
    105c:	f3 1f       	adc	r31, r19
    105e:	80 81       	ld	r24, Z
    1060:	80 95       	com	r24
    1062:	8f b9       	out	0x0f, r24	; 15
		while( !( SPSR & (1<<SPIF) ) ); //    ******** ******** ******** "787878787"
    1064:	ee e2       	ldi	r30, 0x2E	; 46
    1066:	f0 e0       	ldi	r31, 0x00	; 0
    1068:	80 81       	ld	r24, Z
    106a:	88 23       	and	r24, r24
    106c:	ec f7       	brge	.-6      	; 0x1068 <ProcessIO+0x238>

	if(++number5 >= 5) number5 = 0;	
    106e:	89 2f       	mov	r24, r25
    1070:	8f 5f       	subi	r24, 0xFF	; 255
    1072:	80 93 7d 00 	sts	0x007D, r24
    1076:	85 30       	cpi	r24, 0x05	; 5
    1078:	10 f0       	brcs	.+4      	; 0x107e <ProcessIO+0x24e>
    107a:	10 92 7d 00 	sts	0x007D, r1
		
//_delay_us(200);

	BitSet(PORTB, 4);		//   595
    107e:	e8 e3       	ldi	r30, 0x38	; 56
    1080:	f0 e0       	ldi	r31, 0x00	; 0
    1082:	80 81       	ld	r24, Z
    1084:	80 61       	ori	r24, 0x10	; 16
    1086:	80 83       	st	Z, r24
	asm("nop");
    1088:	00 00       	nop
	asm("nop");
    108a:	00 00       	nop
	BitReset(PORTB, 4);
    108c:	80 81       	ld	r24, Z
    108e:	8f 7e       	andi	r24, 0xEF	; 239
    1090:	80 83       	st	Z, r24
	
	if(number5 == 0) BitSet(PORTC, 0); //   5 
    1092:	90 91 7d 00 	lds	r25, 0x007D
    1096:	99 23       	and	r25, r25
    1098:	31 f4       	brne	.+12     	; 0x10a6 <ProcessIO+0x276>
    109a:	e5 e3       	ldi	r30, 0x35	; 53
    109c:	f0 e0       	ldi	r31, 0x00	; 0
    109e:	80 81       	ld	r24, Z
    10a0:	81 60       	ori	r24, 0x01	; 1
    10a2:	80 83       	st	Z, r24
    10a4:	18 c0       	rjmp	.+48     	; 0x10d6 <ProcessIO+0x2a6>
	if(number5 == 1) BitSet(PORTC, 2);
    10a6:	91 30       	cpi	r25, 0x01	; 1
    10a8:	31 f4       	brne	.+12     	; 0x10b6 <ProcessIO+0x286>
    10aa:	e5 e3       	ldi	r30, 0x35	; 53
    10ac:	f0 e0       	ldi	r31, 0x00	; 0
    10ae:	80 81       	ld	r24, Z
    10b0:	84 60       	ori	r24, 0x04	; 4
    10b2:	80 83       	st	Z, r24
    10b4:	08 95       	ret
	if(number5 == 2) BitSet(PORTC, 3);
    10b6:	92 30       	cpi	r25, 0x02	; 2
    10b8:	31 f4       	brne	.+12     	; 0x10c6 <ProcessIO+0x296>
    10ba:	e5 e3       	ldi	r30, 0x35	; 53
    10bc:	f0 e0       	ldi	r31, 0x00	; 0
    10be:	80 81       	ld	r24, Z
    10c0:	88 60       	ori	r24, 0x08	; 8
    10c2:	80 83       	st	Z, r24
    10c4:	08 95       	ret
	if(number5 == 3) BitSet(PORTC, 4);
    10c6:	93 30       	cpi	r25, 0x03	; 3
    10c8:	31 f4       	brne	.+12     	; 0x10d6 <ProcessIO+0x2a6>
    10ca:	e5 e3       	ldi	r30, 0x35	; 53
    10cc:	f0 e0       	ldi	r31, 0x00	; 0
    10ce:	80 81       	ld	r24, Z
    10d0:	80 61       	ori	r24, 0x10	; 16
    10d2:	80 83       	st	Z, r24
    10d4:	08 95       	ret
	if(number5 == 4) BitSet(PORTC, 6);	
    10d6:	94 30       	cpi	r25, 0x04	; 4
    10d8:	29 f4       	brne	.+10     	; 0x10e4 <ProcessIO+0x2b4>
    10da:	e5 e3       	ldi	r30, 0x35	; 53
    10dc:	f0 e0       	ldi	r31, 0x00	; 0
    10de:	80 81       	ld	r24, Z
    10e0:	80 64       	ori	r24, 0x40	; 64
    10e2:	80 83       	st	Z, r24
    10e4:	08 95       	ret

000010e6 <__vector_16>:
/*******************************************************************************
* Function Name  : ADC_vect
* Description    : ADC Interrupt Handler
*******************************************************************************/
ISR(ADC_vect) 
{	
    10e6:	1f 92       	push	r1
    10e8:	0f 92       	push	r0
    10ea:	0f b6       	in	r0, 0x3f	; 63
    10ec:	0f 92       	push	r0
    10ee:	11 24       	eor	r1, r1
    10f0:	2f 93       	push	r18
    10f2:	3f 93       	push	r19
    10f4:	8f 93       	push	r24
    10f6:	9f 93       	push	r25
    10f8:	ef 93       	push	r30
    10fa:	ff 93       	push	r31
	if(adcEnd == 0)
    10fc:	30 91 60 00 	lds	r19, 0x0060
    1100:	33 23       	and	r19, r19
    1102:	09 f4       	brne	.+2      	; 0x1106 <__vector_16+0x20>
    1104:	45 c0       	rjmp	.+138    	; 0x1190 <__vector_16+0xaa>
		return;
	else
	{	
		switch(adcEnd)
    1106:	32 30       	cpi	r19, 0x02	; 2
    1108:	39 f1       	breq	.+78     	; 0x1158 <__vector_16+0x72>
    110a:	33 30       	cpi	r19, 0x03	; 3
    110c:	18 f4       	brcc	.+6      	; 0x1114 <__vector_16+0x2e>
    110e:	31 30       	cpi	r19, 0x01	; 1
    1110:	b1 f5       	brne	.+108    	; 0x117e <__vector_16+0x98>
    1112:	2c c0       	rjmp	.+88     	; 0x116c <__vector_16+0x86>
    1114:	33 30       	cpi	r19, 0x03	; 3
    1116:	b1 f0       	breq	.+44     	; 0x1144 <__vector_16+0x5e>
    1118:	34 30       	cpi	r19, 0x04	; 4
    111a:	89 f5       	brne	.+98     	; 0x117e <__vector_16+0x98>
		{
		/*	case 4: adcX = ADCL; adcX |= (uint8_t)(ADCH<<8); ADMUX = 5; break; //10bit
			case 3: adcA = ADCL; adcA |= (uint8_t)(ADCH<<8); ADMUX = 3; break;
			case 2: adcB = ADCL; adcB |= (uint8_t)(ADCH<<8); ADMUX = 1; break;
			case 1: adcC = ADCL; adcC |= (uint8_t)(ADCH<<8); ADMUX = 0; break;*/
			case 4: adcX += ADCH >> 1;  ADMUX = 5 | 0b01100000; cX++; break; //8bit
    111c:	25 b1       	in	r18, 0x05	; 5
    111e:	80 91 e7 01 	lds	r24, 0x01E7
    1122:	90 91 e8 01 	lds	r25, 0x01E8
    1126:	26 95       	lsr	r18
    1128:	82 0f       	add	r24, r18
    112a:	91 1d       	adc	r25, r1
    112c:	90 93 e8 01 	sts	0x01E8, r25
    1130:	80 93 e7 01 	sts	0x01E7, r24
    1134:	85 e6       	ldi	r24, 0x65	; 101
    1136:	87 b9       	out	0x07, r24	; 7
    1138:	80 91 7b 00 	lds	r24, 0x007B
    113c:	8f 5f       	subi	r24, 0xFF	; 255
    113e:	80 93 7b 00 	sts	0x007B, r24
    1142:	1d c0       	rjmp	.+58     	; 0x117e <__vector_16+0x98>
			case 3: adcA = ADCH >> 1;   ADMUX = 1 | 0b01100000; break;
    1144:	85 b1       	in	r24, 0x05	; 5
    1146:	86 95       	lsr	r24
    1148:	90 e0       	ldi	r25, 0x00	; 0
    114a:	90 93 e6 01 	sts	0x01E6, r25
    114e:	80 93 e5 01 	sts	0x01E5, r24
    1152:	81 e6       	ldi	r24, 0x61	; 97
    1154:	87 b9       	out	0x07, r24	; 7
    1156:	13 c0       	rjmp	.+38     	; 0x117e <__vector_16+0x98>
			case 2: adcC = ADCH >> 1;   ADMUX = 3 | 0b01100000; break;
    1158:	85 b1       	in	r24, 0x05	; 5
    115a:	86 95       	lsr	r24
    115c:	90 e0       	ldi	r25, 0x00	; 0
    115e:	90 93 ea 01 	sts	0x01EA, r25
    1162:	80 93 e9 01 	sts	0x01E9, r24
    1166:	83 e6       	ldi	r24, 0x63	; 99
    1168:	87 b9       	out	0x07, r24	; 7
    116a:	09 c0       	rjmp	.+18     	; 0x117e <__vector_16+0x98>
			case 1: adcB = ADCH >> 1;   ADMUX = 0 | 0b01100000; break;
    116c:	85 b1       	in	r24, 0x05	; 5
    116e:	86 95       	lsr	r24
    1170:	90 e0       	ldi	r25, 0x00	; 0
    1172:	90 93 e4 01 	sts	0x01E4, r25
    1176:	80 93 e3 01 	sts	0x01E3, r24
    117a:	80 e6       	ldi	r24, 0x60	; 96
    117c:	87 b9       	out	0x07, r24	; 7
		}

		adcEnd--;
    117e:	83 2f       	mov	r24, r19
    1180:	81 50       	subi	r24, 0x01	; 1
    1182:	80 93 60 00 	sts	0x0060, r24
		ADCSRA |= (1<<ADSC);
    1186:	e6 e2       	ldi	r30, 0x26	; 38
    1188:	f0 e0       	ldi	r31, 0x00	; 0
    118a:	80 81       	ld	r24, Z
    118c:	80 64       	ori	r24, 0x40	; 64
    118e:	80 83       	st	Z, r24
	}
}
    1190:	ff 91       	pop	r31
    1192:	ef 91       	pop	r30
    1194:	9f 91       	pop	r25
    1196:	8f 91       	pop	r24
    1198:	3f 91       	pop	r19
    119a:	2f 91       	pop	r18
    119c:	0f 90       	pop	r0
    119e:	0f be       	out	0x3f, r0	; 63
    11a0:	0f 90       	pop	r0
    11a2:	1f 90       	pop	r1
    11a4:	18 95       	reti

000011a6 <SendBit_1621>:
#include "HT1621.h"
#include <avr/io.h>
char digit[10]={ 0x7D, 0x60, 0x3E, 0x7A, 0x63, 0x5B, 0x5F, 0x70, 0x7F, 0x7B }; // 0-9

void SendBit_1621(unsigned char data, unsigned char cnt)  //DATAa high cnt low WRite to HT1621,high bit first 
{ 
    11a6:	28 2f       	mov	r18, r24
  unsigned char i; 
  for(i=0; i<cnt; i++){ 
    11a8:	66 23       	and	r22, r22
    11aa:	c1 f0       	breq	.+48     	; 0x11dc <SendBit_1621+0x36>
    11ac:	90 e0       	ldi	r25, 0x00	; 0
    if((data & 0x80)==0) DATA0;
    else DATA1; 
    11ae:	eb e3       	ldi	r30, 0x3B	; 59
    11b0:	f0 e0       	ldi	r31, 0x00	; 0

void SendBit_1621(unsigned char data, unsigned char cnt)  //DATAa high cnt low WRite to HT1621,high bit first 
{ 
  unsigned char i; 
  for(i=0; i<cnt; i++){ 
    if((data & 0x80)==0) DATA0;
    11b2:	22 23       	and	r18, r18
    11b4:	24 f0       	brlt	.+8      	; 0x11be <SendBit_1621+0x18>
    11b6:	80 81       	ld	r24, Z
    11b8:	8b 7f       	andi	r24, 0xFB	; 251
    11ba:	80 83       	st	Z, r24
    11bc:	03 c0       	rjmp	.+6      	; 0x11c4 <SendBit_1621+0x1e>
    else DATA1; 
    11be:	80 81       	ld	r24, Z
    11c0:	84 60       	ori	r24, 0x04	; 4
    11c2:	80 83       	st	Z, r24
    WR0; 
    11c4:	80 81       	ld	r24, Z
    11c6:	8f 7e       	andi	r24, 0xEF	; 239
    11c8:	80 83       	st	Z, r24
    data <<= 1; 
    asm("nop"); 
    11ca:	00 00       	nop
    WR1;   
    11cc:	80 81       	ld	r24, Z
    11ce:	80 61       	ori	r24, 0x10	; 16
    11d0:	80 83       	st	Z, r24
char digit[10]={ 0x7D, 0x60, 0x3E, 0x7A, 0x63, 0x5B, 0x5F, 0x70, 0x7F, 0x7B }; // 0-9

void SendBit_1621(unsigned char data, unsigned char cnt)  //DATAa high cnt low WRite to HT1621,high bit first 
{ 
  unsigned char i; 
  for(i=0; i<cnt; i++){ 
    11d2:	9f 5f       	subi	r25, 0xFF	; 255
    11d4:	96 17       	cp	r25, r22
    11d6:	10 f4       	brcc	.+4      	; 0x11dc <SendBit_1621+0x36>
    if((data & 0x80)==0) DATA0;
    else DATA1; 
    WR0; 
    data <<= 1; 
    11d8:	22 0f       	add	r18, r18
    11da:	eb cf       	rjmp	.-42     	; 0x11b2 <SendBit_1621+0xc>
    11dc:	08 95       	ret

000011de <SendDataBit_1621>:
    WR1;   
  } 
}

void SendDataBit_1621(unsigned char data,unsigned char cnt)  //DATAa low cnt bit WRite to the HT1621, low bit first
{ 
    11de:	28 2f       	mov	r18, r24
  unsigned char i; 
  for(i =0; i < cnt; i++) { 
    11e0:	66 23       	and	r22, r22
    11e2:	c1 f0       	breq	.+48     	; 0x1214 <SendDataBit_1621+0x36>
    11e4:	90 e0       	ldi	r25, 0x00	; 0
    if((data&0x01)==0) DATA0; 
    else DATA1; 
    11e6:	eb e3       	ldi	r30, 0x3B	; 59
    11e8:	f0 e0       	ldi	r31, 0x00	; 0

void SendDataBit_1621(unsigned char data,unsigned char cnt)  //DATAa low cnt bit WRite to the HT1621, low bit first
{ 
  unsigned char i; 
  for(i =0; i < cnt; i++) { 
    if((data&0x01)==0) DATA0; 
    11ea:	20 fd       	sbrc	r18, 0
    11ec:	04 c0       	rjmp	.+8      	; 0x11f6 <SendDataBit_1621+0x18>
    11ee:	80 81       	ld	r24, Z
    11f0:	8b 7f       	andi	r24, 0xFB	; 251
    11f2:	80 83       	st	Z, r24
    11f4:	03 c0       	rjmp	.+6      	; 0x11fc <SendDataBit_1621+0x1e>
    else DATA1; 
    11f6:	80 81       	ld	r24, Z
    11f8:	84 60       	ori	r24, 0x04	; 4
    11fa:	80 83       	st	Z, r24
    WR0; 
    11fc:	80 81       	ld	r24, Z
    11fe:	8f 7e       	andi	r24, 0xEF	; 239
    1200:	80 83       	st	Z, r24
    data >>= 1;
    asm("nop"); 
    1202:	00 00       	nop
    WR1; 
    1204:	80 81       	ld	r24, Z
    1206:	80 61       	ori	r24, 0x10	; 16
    1208:	80 83       	st	Z, r24
}

void SendDataBit_1621(unsigned char data,unsigned char cnt)  //DATAa low cnt bit WRite to the HT1621, low bit first
{ 
  unsigned char i; 
  for(i =0; i < cnt; i++) { 
    120a:	9f 5f       	subi	r25, 0xFF	; 255
    120c:	96 17       	cp	r25, r22
    120e:	10 f4       	brcc	.+4      	; 0x1214 <SendDataBit_1621+0x36>
    if((data&0x01)==0) DATA0; 
    else DATA1; 
    WR0; 
    data >>= 1;
    1210:	26 95       	lsr	r18
    1212:	eb cf       	rjmp	.-42     	; 0x11ea <SendDataBit_1621+0xc>
    1214:	08 95       	ret

00001216 <SendCmd>:
     
  } 
}

void SendCmd(unsigned char command) 
{ 
    1216:	ff 92       	push	r15
    1218:	0f 93       	push	r16
    121a:	1f 93       	push	r17
    121c:	f8 2e       	mov	r15, r24
  CS0; 
    121e:	0b e3       	ldi	r16, 0x3B	; 59
    1220:	10 e0       	ldi	r17, 0x00	; 0
    1222:	f8 01       	movw	r30, r16
    1224:	80 81       	ld	r24, Z
    1226:	8f 7b       	andi	r24, 0xBF	; 191
    1228:	80 83       	st	Z, r24
  SendBit_1621(0x80,4); //WRite flag code 100 and 9 bit command instruction 
    122a:	80 e8       	ldi	r24, 0x80	; 128
    122c:	64 e0       	ldi	r22, 0x04	; 4
    122e:	0e 94 d3 08 	call	0x11a6	; 0x11a6 <SendBit_1621>
  SendBit_1621(command,8); //no change clock output instruction, for convenience 
    1232:	8f 2d       	mov	r24, r15
    1234:	68 e0       	ldi	r22, 0x08	; 8
    1236:	0e 94 d3 08 	call	0x11a6	; 0x11a6 <SendBit_1621>
  CS1; //directly WRite command high bit as 0 
    123a:	f8 01       	movw	r30, r16
    123c:	80 81       	ld	r24, Z
    123e:	80 64       	ori	r24, 0x40	; 64
    1240:	80 83       	st	Z, r24
}
    1242:	1f 91       	pop	r17
    1244:	0f 91       	pop	r16
    1246:	ff 90       	pop	r15
    1248:	08 95       	ret

0000124a <Write_1621>:

void Write_1621(unsigned char addr,unsigned char data) 
{ 
    124a:	ef 92       	push	r14
    124c:	ff 92       	push	r15
    124e:	0f 93       	push	r16
    1250:	1f 93       	push	r17
    1252:	e6 2e       	mov	r14, r22
  CS0; 
    1254:	0b e3       	ldi	r16, 0x3B	; 59
    1256:	10 e0       	ldi	r17, 0x00	; 0
    1258:	f8 01       	movw	r30, r16
    125a:	90 81       	ld	r25, Z
    125c:	9f 7b       	andi	r25, 0xBF	; 191
    125e:	90 83       	st	Z, r25
  addr <<=3;
    1260:	f8 2e       	mov	r15, r24
    1262:	ff 0c       	add	r15, r15
    1264:	ff 0c       	add	r15, r15
    1266:	ff 0c       	add	r15, r15
  addr -= 4;
  SendBit_1621(0xa0,3); //WRite flag code 101 
    1268:	80 ea       	ldi	r24, 0xA0	; 160
    126a:	63 e0       	ldi	r22, 0x03	; 3
    126c:	0e 94 d3 08 	call	0x11a6	; 0x11a6 <SendBit_1621>
  SendBit_1621(addr,6); //WRite addr high 6 bits 
    1270:	8f 2d       	mov	r24, r15
    1272:	84 50       	subi	r24, 0x04	; 4
    1274:	66 e0       	ldi	r22, 0x06	; 6
    1276:	0e 94 d3 08 	call	0x11a6	; 0x11a6 <SendBit_1621>
  SendDataBit_1621(data,8);  //WRite DATAa low 4 bits 
    127a:	8e 2d       	mov	r24, r14
    127c:	68 e0       	ldi	r22, 0x08	; 8
    127e:	0e 94 ef 08 	call	0x11de	; 0x11de <SendDataBit_1621>
  CS1; 
    1282:	f8 01       	movw	r30, r16
    1284:	80 81       	ld	r24, Z
    1286:	80 64       	ori	r24, 0x40	; 64
    1288:	80 83       	st	Z, r24
} 
    128a:	1f 91       	pop	r17
    128c:	0f 91       	pop	r16
    128e:	ff 90       	pop	r15
    1290:	ef 90       	pop	r14
    1292:	08 95       	ret

00001294 <Clear_1621>:

void Clear_1621() 
{ 
    1294:	1f 93       	push	r17
  CS0; 
    1296:	eb e3       	ldi	r30, 0x3B	; 59
    1298:	f0 e0       	ldi	r31, 0x00	; 0
    129a:	80 81       	ld	r24, Z
    129c:	8f 7b       	andi	r24, 0xBF	; 191
    129e:	80 83       	st	Z, r24
  SendBit_1621(0xa0,3); //WRite flag code 101 
    12a0:	80 ea       	ldi	r24, 0xA0	; 160
    12a2:	63 e0       	ldi	r22, 0x03	; 3
    12a4:	0e 94 d3 08 	call	0x11a6	; 0x11a6 <SendBit_1621>
    12a8:	10 e0       	ldi	r17, 0x00	; 0
  for(int u=0; u<17; u++){
    Write_1621(u,0); 
    12aa:	81 2f       	mov	r24, r17
    12ac:	60 e0       	ldi	r22, 0x00	; 0
    12ae:	0e 94 25 09 	call	0x124a	; 0x124a <Write_1621>
    12b2:	1f 5f       	subi	r17, 0xFF	; 255

void Clear_1621() 
{ 
  CS0; 
  SendBit_1621(0xa0,3); //WRite flag code 101 
  for(int u=0; u<17; u++){
    12b4:	11 31       	cpi	r17, 0x11	; 17
    12b6:	c9 f7       	brne	.-14     	; 0x12aa <Clear_1621+0x16>
    Write_1621(u,0); 
  }
  CS1;
    12b8:	eb e3       	ldi	r30, 0x3B	; 59
    12ba:	f0 e0       	ldi	r31, 0x00	; 0
    12bc:	80 81       	ld	r24, Z
    12be:	80 64       	ori	r24, 0x40	; 64
    12c0:	80 83       	st	Z, r24
}
    12c2:	1f 91       	pop	r17
    12c4:	08 95       	ret

000012c6 <WriteDigit_1621>:

void WriteDigit_1621(unsigned char addr,unsigned char data,unsigned char dotPoint) 
{ 
    12c6:	0f 93       	push	r16
    12c8:	1f 93       	push	r17
    12ca:	08 2f       	mov	r16, r24
  CS0; 
    12cc:	eb e3       	ldi	r30, 0x3B	; 59
    12ce:	f0 e0       	ldi	r31, 0x00	; 0
    12d0:	80 81       	ld	r24, Z
    12d2:	8f 7b       	andi	r24, 0xBF	; 191
    12d4:	80 83       	st	Z, r24
  addr <<=3;
  addr -= 4;
  data = digit[data];
    12d6:	e1 e6       	ldi	r30, 0x61	; 97
    12d8:	f0 e0       	ldi	r31, 0x00	; 0
    12da:	e6 0f       	add	r30, r22
    12dc:	f1 1d       	adc	r31, r1
    12de:	10 81       	ld	r17, Z
  if(dotPoint) data |= 0x80;
    12e0:	41 11       	cpse	r20, r1
    12e2:	10 68       	ori	r17, 0x80	; 128
  SendBit_1621(0xa0,3); //WRite flag code 101 
    12e4:	80 ea       	ldi	r24, 0xA0	; 160
    12e6:	63 e0       	ldi	r22, 0x03	; 3
    12e8:	0e 94 d3 08 	call	0x11a6	; 0x11a6 <SendBit_1621>
}

void WriteDigit_1621(unsigned char addr,unsigned char data,unsigned char dotPoint) 
{ 
  CS0; 
  addr <<=3;
    12ec:	80 2f       	mov	r24, r16
    12ee:	88 0f       	add	r24, r24
    12f0:	88 0f       	add	r24, r24
    12f2:	88 0f       	add	r24, r24
  addr -= 4;
  data = digit[data];
  if(dotPoint) data |= 0x80;
  SendBit_1621(0xa0,3); //WRite flag code 101 
  SendBit_1621(addr,6); //WRite addr high 6 bits 
    12f4:	84 50       	subi	r24, 0x04	; 4
    12f6:	66 e0       	ldi	r22, 0x06	; 6
    12f8:	0e 94 d3 08 	call	0x11a6	; 0x11a6 <SendBit_1621>
  SendDataBit_1621(data,8);  //WRite DATAa low 4 bits 
    12fc:	81 2f       	mov	r24, r17
    12fe:	68 e0       	ldi	r22, 0x08	; 8
    1300:	0e 94 ef 08 	call	0x11de	; 0x11de <SendDataBit_1621>
  CS1; 
    1304:	eb e3       	ldi	r30, 0x3B	; 59
    1306:	f0 e0       	ldi	r31, 0x00	; 0
    1308:	80 81       	ld	r24, Z
    130a:	80 64       	ori	r24, 0x40	; 64
    130c:	80 83       	st	Z, r24
} 
    130e:	1f 91       	pop	r17
    1310:	0f 91       	pop	r16
    1312:	08 95       	ret

00001314 <num3>:


void num3(uint8_t k, uint8_t n1, uint8_t n2, uint8_t n3)
{
    1314:	ff 92       	push	r15
    1316:	0f 93       	push	r16
    1318:	1f 93       	push	r17
    131a:	18 2f       	mov	r17, r24
    131c:	36 2f       	mov	r19, r22
    131e:	04 2f       	mov	r16, r20
    1320:	f2 2e       	mov	r15, r18
	uint8_t m;
	m=k/100;
   	WriteDigit_1621(n1,m,0);
    1322:	64 e6       	ldi	r22, 0x64	; 100
    1324:	0e 94 ef 0e 	call	0x1dde	; 0x1dde <__udivmodqi4>
    1328:	68 2f       	mov	r22, r24
    132a:	83 2f       	mov	r24, r19
    132c:	40 e0       	ldi	r20, 0x00	; 0
    132e:	0e 94 63 09 	call	0x12c6	; 0x12c6 <WriteDigit_1621>
    m=k%100;
    1332:	81 2f       	mov	r24, r17
    1334:	64 e6       	ldi	r22, 0x64	; 100
    1336:	0e 94 ef 0e 	call	0x1dde	; 0x1dde <__udivmodqi4>
    m=m/10;
   	WriteDigit_1621(n2,m,0); 
    133a:	89 2f       	mov	r24, r25
    133c:	6a e0       	ldi	r22, 0x0A	; 10
    133e:	0e 94 ef 0e 	call	0x1dde	; 0x1dde <__udivmodqi4>
    1342:	68 2f       	mov	r22, r24
    1344:	80 2f       	mov	r24, r16
    1346:	40 e0       	ldi	r20, 0x00	; 0
    1348:	0e 94 63 09 	call	0x12c6	; 0x12c6 <WriteDigit_1621>
    m=k%10;
   	WriteDigit_1621(n3,m,1);
    134c:	81 2f       	mov	r24, r17
    134e:	6a e0       	ldi	r22, 0x0A	; 10
    1350:	0e 94 ef 0e 	call	0x1dde	; 0x1dde <__udivmodqi4>
    1354:	8f 2d       	mov	r24, r15
    1356:	69 2f       	mov	r22, r25
    1358:	41 e0       	ldi	r20, 0x01	; 1
    135a:	0e 94 63 09 	call	0x12c6	; 0x12c6 <WriteDigit_1621>
}
    135e:	1f 91       	pop	r17
    1360:	0f 91       	pop	r16
    1362:	ff 90       	pop	r15
    1364:	08 95       	ret

00001366 <num5>:

void num5(unsigned int p, uint8_t n1, uint8_t n2, uint8_t n3,
uint8_t n4, uint8_t n5)
{
    1366:	cf 92       	push	r12
    1368:	df 92       	push	r13
    136a:	ef 92       	push	r14
    136c:	ff 92       	push	r15
    136e:	0f 93       	push	r16
    1370:	1f 93       	push	r17
    1372:	6c 01       	movw	r12, r24
    1374:	36 2f       	mov	r19, r22
    1376:	14 2f       	mov	r17, r20
    1378:	f2 2e       	mov	r15, r18
	unsigned int y;
	y=p/10000;
	WriteDigit_1621(n1,y,0);
    137a:	60 e1       	ldi	r22, 0x10	; 16
    137c:	77 e2       	ldi	r23, 0x27	; 39
    137e:	0e 94 fb 0e 	call	0x1df6	; 0x1df6 <__udivmodhi4>
    1382:	83 2f       	mov	r24, r19
    1384:	40 e0       	ldi	r20, 0x00	; 0
    1386:	0e 94 63 09 	call	0x12c6	; 0x12c6 <WriteDigit_1621>
	y=p%10000;
    138a:	c6 01       	movw	r24, r12
    138c:	60 e1       	ldi	r22, 0x10	; 16
    138e:	77 e2       	ldi	r23, 0x27	; 39
    1390:	0e 94 fb 0e 	call	0x1df6	; 0x1df6 <__udivmodhi4>
	y=y/1000;
	WriteDigit_1621(n2,y,0);
    1394:	68 ee       	ldi	r22, 0xE8	; 232
    1396:	73 e0       	ldi	r23, 0x03	; 3
    1398:	0e 94 fb 0e 	call	0x1df6	; 0x1df6 <__udivmodhi4>
    139c:	81 2f       	mov	r24, r17
    139e:	40 e0       	ldi	r20, 0x00	; 0
    13a0:	0e 94 63 09 	call	0x12c6	; 0x12c6 <WriteDigit_1621>
	y=p%1000;
    13a4:	c6 01       	movw	r24, r12
    13a6:	68 ee       	ldi	r22, 0xE8	; 232
    13a8:	73 e0       	ldi	r23, 0x03	; 3
    13aa:	0e 94 fb 0e 	call	0x1df6	; 0x1df6 <__udivmodhi4>
	y=y/100;
	WriteDigit_1621(n3,y,0);
    13ae:	64 e6       	ldi	r22, 0x64	; 100
    13b0:	70 e0       	ldi	r23, 0x00	; 0
    13b2:	0e 94 fb 0e 	call	0x1df6	; 0x1df6 <__udivmodhi4>
    13b6:	8f 2d       	mov	r24, r15
    13b8:	40 e0       	ldi	r20, 0x00	; 0
    13ba:	0e 94 63 09 	call	0x12c6	; 0x12c6 <WriteDigit_1621>
	y=p%100;
    13be:	c6 01       	movw	r24, r12
    13c0:	64 e6       	ldi	r22, 0x64	; 100
    13c2:	70 e0       	ldi	r23, 0x00	; 0
    13c4:	0e 94 fb 0e 	call	0x1df6	; 0x1df6 <__udivmodhi4>
	y=y/10;
	WriteDigit_1621(n4,y,0); 
    13c8:	6a e0       	ldi	r22, 0x0A	; 10
    13ca:	70 e0       	ldi	r23, 0x00	; 0
    13cc:	0e 94 fb 0e 	call	0x1df6	; 0x1df6 <__udivmodhi4>
    13d0:	80 2f       	mov	r24, r16
    13d2:	40 e0       	ldi	r20, 0x00	; 0
    13d4:	0e 94 63 09 	call	0x12c6	; 0x12c6 <WriteDigit_1621>
	y=p%10;
	WriteDigit_1621(n5,y,1);
    13d8:	c6 01       	movw	r24, r12
    13da:	6a e0       	ldi	r22, 0x0A	; 10
    13dc:	70 e0       	ldi	r23, 0x00	; 0
    13de:	0e 94 fb 0e 	call	0x1df6	; 0x1df6 <__udivmodhi4>
    13e2:	68 2f       	mov	r22, r24
    13e4:	8e 2d       	mov	r24, r14
    13e6:	41 e0       	ldi	r20, 0x01	; 1
    13e8:	0e 94 63 09 	call	0x12c6	; 0x12c6 <WriteDigit_1621>
}
    13ec:	1f 91       	pop	r17
    13ee:	0f 91       	pop	r16
    13f0:	ff 90       	pop	r15
    13f2:	ef 90       	pop	r14
    13f4:	df 90       	pop	r13
    13f6:	cf 90       	pop	r12
    13f8:	08 95       	ret

000013fa <__vector_2>:
/*******************************************************************************
* Function Name  : INT1_vector
* Description    : INT1 Interrupt Handler (Left Jog)
*******************************************************************************/
ISR(INT1_vect) 
{	
    13fa:	1f 92       	push	r1
    13fc:	0f 92       	push	r0
    13fe:	0f b6       	in	r0, 0x3f	; 63
    1400:	0f 92       	push	r0
    1402:	11 24       	eor	r1, r1
    1404:	8f 93       	push	r24
    1406:	ef 93       	push	r30
    1408:	ff 93       	push	r31
	if(BitIsReset(PINB, 1))
    140a:	b1 99       	sbic	0x16, 1	; 22
    140c:	06 c0       	rjmp	.+12     	; 0x141a <__vector_2+0x20>
		jogCount[0]++;		
    140e:	ee e7       	ldi	r30, 0x7E	; 126
    1410:	f0 e0       	ldi	r31, 0x00	; 0
    1412:	80 81       	ld	r24, Z
    1414:	8f 5f       	subi	r24, 0xFF	; 255
    1416:	80 83       	st	Z, r24
    1418:	05 c0       	rjmp	.+10     	; 0x1424 <__vector_2+0x2a>
	else	
		jogCount[0]--;
    141a:	ee e7       	ldi	r30, 0x7E	; 126
    141c:	f0 e0       	ldi	r31, 0x00	; 0
    141e:	80 81       	ld	r24, Z
    1420:	81 50       	subi	r24, 0x01	; 1
    1422:	80 83       	st	Z, r24

	GIFR &= ~(1<<INTF1);
    1424:	ea e5       	ldi	r30, 0x5A	; 90
    1426:	f0 e0       	ldi	r31, 0x00	; 0
    1428:	80 81       	ld	r24, Z
    142a:	8f 77       	andi	r24, 0x7F	; 127
    142c:	80 83       	st	Z, r24
}
    142e:	ff 91       	pop	r31
    1430:	ef 91       	pop	r30
    1432:	8f 91       	pop	r24
    1434:	0f 90       	pop	r0
    1436:	0f be       	out	0x3f, r0	; 63
    1438:	0f 90       	pop	r0
    143a:	1f 90       	pop	r1
    143c:	18 95       	reti

0000143e <__vector_3>:
/*******************************************************************************
* Function Name  : INT2_vector
* Description    : INT2 Interrupt Handler (Right Jog)
*******************************************************************************/
ISR(INT2_vect)
{	
    143e:	1f 92       	push	r1
    1440:	0f 92       	push	r0
    1442:	0f b6       	in	r0, 0x3f	; 63
    1444:	0f 92       	push	r0
    1446:	11 24       	eor	r1, r1
    1448:	8f 93       	push	r24
    144a:	ef 93       	push	r30
    144c:	ff 93       	push	r31
	if(BitIsSet(PINB, 0))
    144e:	b0 9b       	sbis	0x16, 0	; 22
    1450:	06 c0       	rjmp	.+12     	; 0x145e <__vector_3+0x20>
		jogCount[1]++;		
    1452:	ef e7       	ldi	r30, 0x7F	; 127
    1454:	f0 e0       	ldi	r31, 0x00	; 0
    1456:	80 81       	ld	r24, Z
    1458:	8f 5f       	subi	r24, 0xFF	; 255
    145a:	80 83       	st	Z, r24
    145c:	05 c0       	rjmp	.+10     	; 0x1468 <__vector_3+0x2a>
	else	
		jogCount[1]--;
    145e:	ef e7       	ldi	r30, 0x7F	; 127
    1460:	f0 e0       	ldi	r31, 0x00	; 0
    1462:	80 81       	ld	r24, Z
    1464:	81 50       	subi	r24, 0x01	; 1
    1466:	80 83       	st	Z, r24

	GIFR &= ~(1<<INTF2);
    1468:	ea e5       	ldi	r30, 0x5A	; 90
    146a:	f0 e0       	ldi	r31, 0x00	; 0
    146c:	80 81       	ld	r24, Z
    146e:	8f 7d       	andi	r24, 0xDF	; 223
    1470:	80 83       	st	Z, r24
}
    1472:	ff 91       	pop	r31
    1474:	ef 91       	pop	r30
    1476:	8f 91       	pop	r24
    1478:	0f 90       	pop	r0
    147a:	0f be       	out	0x3f, r0	; 63
    147c:	0f 90       	pop	r0
    147e:	1f 90       	pop	r1
    1480:	18 95       	reti

00001482 <__vector_10>:
/*******************************************************************************
* Function Name  : TIMER0_COMP_vector
* Description    : TIMER0 Compare Interrupt Handler - Jogs processing
*******************************************************************************/
ISR(TIMER0_COMP_vect)
{	
    1482:	1f 92       	push	r1
    1484:	0f 92       	push	r0
    1486:	0f b6       	in	r0, 0x3f	; 63
    1488:	0f 92       	push	r0
    148a:	11 24       	eor	r1, r1
    148c:	9f 92       	push	r9
    148e:	af 92       	push	r10
    1490:	bf 92       	push	r11
    1492:	cf 92       	push	r12
    1494:	df 92       	push	r13
    1496:	ef 92       	push	r14
    1498:	ff 92       	push	r15
    149a:	0f 93       	push	r16
    149c:	1f 93       	push	r17
    149e:	2f 93       	push	r18
    14a0:	3f 93       	push	r19
    14a2:	4f 93       	push	r20
    14a4:	5f 93       	push	r21
    14a6:	6f 93       	push	r22
    14a8:	7f 93       	push	r23
    14aa:	8f 93       	push	r24
    14ac:	9f 93       	push	r25
    14ae:	af 93       	push	r26
    14b0:	bf 93       	push	r27
    14b2:	cf 93       	push	r28
    14b4:	df 93       	push	r29
    14b6:	ef 93       	push	r30
    14b8:	ff 93       	push	r31
    14ba:	cb e6       	ldi	r28, 0x6B	; 107
    14bc:	d0 e0       	ldi	r29, 0x00	; 0
    14be:	ee 24       	eor	r14, r14
    14c0:	ff 24       	eor	r15, r15
#define STOP 100
	static uint8_t lastCount[2] = {STOP,STOP};

	for(uint8_t i=0; i<2; i++)
	{
		if(jogCount[i]!=0) 
    14c2:	0f 2e       	mov	r0, r31
    14c4:	fe e7       	ldi	r31, 0x7E	; 126
    14c6:	cf 2e       	mov	r12, r31
    14c8:	f0 e0       	ldi	r31, 0x00	; 0
    14ca:	df 2e       	mov	r13, r31
    14cc:	f0 2d       	mov	r31, r0
			if(lastCount[i] != STOP) lastCount[i]++;
		}


		if(lastCount[i] >= (20 /4) && lastCount[i] < STOP) 
					lastCount[i] = STOP;
    14ce:	0f 2e       	mov	r0, r31
    14d0:	f4 e6       	ldi	r31, 0x64	; 100
    14d2:	bf 2e       	mov	r11, r31
    14d4:	f0 2d       	mov	r31, r0
	for(uint8_t i=0; i<2; i++)
	{
		if(jogCount[i]!=0) 
		{
			if(jogCount[i] > 63) 	jogCount[i] = 63;
			if(jogCount[i] < -63) 	jogCount[i] = -63;
    14d6:	0f 2e       	mov	r0, r31
    14d8:	f1 ec       	ldi	r31, 0xC1	; 193
    14da:	9f 2e       	mov	r9, r31
    14dc:	f0 2d       	mov	r31, r0

	for(uint8_t i=0; i<2; i++)
	{
		if(jogCount[i]!=0) 
		{
			if(jogCount[i] > 63) 	jogCount[i] = 63;
    14de:	0f 2e       	mov	r0, r31
    14e0:	ff e3       	ldi	r31, 0x3F	; 63
    14e2:	af 2e       	mov	r10, r31
    14e4:	f0 2d       	mov	r31, r0
/*******************************************************************************
* Function Name  : TIMER0_COMP_vector
* Description    : TIMER0 Compare Interrupt Handler - Jogs processing
*******************************************************************************/
ISR(TIMER0_COMP_vect)
{	
    14e6:	87 01       	movw	r16, r14
#define STOP 100
	static uint8_t lastCount[2] = {STOP,STOP};

	for(uint8_t i=0; i<2; i++)
	{
		if(jogCount[i]!=0) 
    14e8:	f6 01       	movw	r30, r12
    14ea:	ee 0d       	add	r30, r14
    14ec:	ff 1d       	adc	r31, r15
    14ee:	80 81       	ld	r24, Z
    14f0:	88 23       	and	r24, r24
    14f2:	71 f1       	breq	.+92     	; 0x1550 <__vector_10+0xce>
		{
			if(jogCount[i] > 63) 	jogCount[i] = 63;
    14f4:	f6 01       	movw	r30, r12
    14f6:	ee 0d       	add	r30, r14
    14f8:	ff 1d       	adc	r31, r15
    14fa:	80 81       	ld	r24, Z
    14fc:	80 34       	cpi	r24, 0x40	; 64
    14fe:	24 f0       	brlt	.+8      	; 0x1508 <__vector_10+0x86>
    1500:	f6 01       	movw	r30, r12
    1502:	ee 0d       	add	r30, r14
    1504:	ff 1d       	adc	r31, r15
    1506:	a0 82       	st	Z, r10
			if(jogCount[i] < -63) 	jogCount[i] = -63;
    1508:	f6 01       	movw	r30, r12
    150a:	e0 0f       	add	r30, r16
    150c:	f1 1f       	adc	r31, r17
    150e:	80 81       	ld	r24, Z
    1510:	81 3c       	cpi	r24, 0xC1	; 193
    1512:	24 f4       	brge	.+8      	; 0x151c <__vector_10+0x9a>
    1514:	f6 01       	movw	r30, r12
    1516:	e0 0f       	add	r30, r16
    1518:	f1 1f       	adc	r31, r17
    151a:	90 82       	st	Z, r9


			if(i==0) MidiAddMsg(0xb0, 7, 64+jogCount[i]);
    151c:	ee 20       	and	r14, r14
    151e:	51 f4       	brne	.+20     	; 0x1534 <__vector_10+0xb2>
    1520:	f6 01       	movw	r30, r12
    1522:	e0 0f       	add	r30, r16
    1524:	f1 1f       	adc	r31, r17
    1526:	40 81       	ld	r20, Z
    1528:	40 5c       	subi	r20, 0xC0	; 192
    152a:	80 eb       	ldi	r24, 0xB0	; 176
    152c:	67 e0       	ldi	r22, 0x07	; 7
    152e:	0e 94 5f 01 	call	0x2be	; 0x2be <MidiAddMsg>
    1532:	09 c0       	rjmp	.+18     	; 0x1546 <__vector_10+0xc4>
	    	else 	 MidiAddMsg(0xb1, 7, 64+jogCount[i]);
    1534:	f6 01       	movw	r30, r12
    1536:	e0 0f       	add	r30, r16
    1538:	f1 1f       	adc	r31, r17
    153a:	40 81       	ld	r20, Z
    153c:	40 5c       	subi	r20, 0xC0	; 192
    153e:	81 eb       	ldi	r24, 0xB1	; 177
    1540:	67 e0       	ldi	r22, 0x07	; 7
    1542:	0e 94 5f 01 	call	0x2be	; 0x2be <MidiAddMsg>

			if(lastCount[i] == STOP)	lastCount[i] = 0;
    1546:	88 81       	ld	r24, Y
    1548:	84 36       	cpi	r24, 0x64	; 100
    154a:	39 f4       	brne	.+14     	; 0x155a <__vector_10+0xd8>
    154c:	18 82       	st	Y, r1
    154e:	0a c0       	rjmp	.+20     	; 0x1564 <__vector_10+0xe2>
		}
		else 
		{		
			if(lastCount[i] != STOP) lastCount[i]++;
    1550:	88 81       	ld	r24, Y
    1552:	84 36       	cpi	r24, 0x64	; 100
    1554:	39 f0       	breq	.+14     	; 0x1564 <__vector_10+0xe2>
    1556:	8f 5f       	subi	r24, 0xFF	; 255
    1558:	88 83       	st	Y, r24
		}


		if(lastCount[i] >= (20 /4) && lastCount[i] < STOP) 
    155a:	88 81       	ld	r24, Y
    155c:	85 50       	subi	r24, 0x05	; 5
    155e:	8f 35       	cpi	r24, 0x5F	; 95
    1560:	08 f4       	brcc	.+2      	; 0x1564 <__vector_10+0xe2>
					lastCount[i] = STOP;
    1562:	b8 82       	st	Y, r11

		jogCount[i] = 0;
    1564:	f6 01       	movw	r30, r12
    1566:	e0 0f       	add	r30, r16
    1568:	f1 1f       	adc	r31, r17
    156a:	10 82       	st	Z, r1
    156c:	08 94       	sec
    156e:	e1 1c       	adc	r14, r1
    1570:	f1 1c       	adc	r15, r1
    1572:	21 96       	adiw	r28, 0x01	; 1
ISR(TIMER0_COMP_vect)
{	
#define STOP 100
	static uint8_t lastCount[2] = {STOP,STOP};

	for(uint8_t i=0; i<2; i++)
    1574:	82 e0       	ldi	r24, 0x02	; 2
    1576:	e8 16       	cp	r14, r24
    1578:	f1 04       	cpc	r15, r1
    157a:	09 f0       	breq	.+2      	; 0x157e <__vector_10+0xfc>
    157c:	b4 cf       	rjmp	.-152    	; 0x14e6 <__vector_10+0x64>
		if(lastCount[i] >= (20 /4) && lastCount[i] < STOP) 
					lastCount[i] = STOP;

		jogCount[i] = 0;
	}
}
    157e:	ff 91       	pop	r31
    1580:	ef 91       	pop	r30
    1582:	df 91       	pop	r29
    1584:	cf 91       	pop	r28
    1586:	bf 91       	pop	r27
    1588:	af 91       	pop	r26
    158a:	9f 91       	pop	r25
    158c:	8f 91       	pop	r24
    158e:	7f 91       	pop	r23
    1590:	6f 91       	pop	r22
    1592:	5f 91       	pop	r21
    1594:	4f 91       	pop	r20
    1596:	3f 91       	pop	r19
    1598:	2f 91       	pop	r18
    159a:	1f 91       	pop	r17
    159c:	0f 91       	pop	r16
    159e:	ff 90       	pop	r15
    15a0:	ef 90       	pop	r14
    15a2:	df 90       	pop	r13
    15a4:	cf 90       	pop	r12
    15a6:	bf 90       	pop	r11
    15a8:	af 90       	pop	r10
    15aa:	9f 90       	pop	r9
    15ac:	0f 90       	pop	r0
    15ae:	0f be       	out	0x3f, r0	; 63
    15b0:	0f 90       	pop	r0
    15b2:	1f 90       	pop	r1
    15b4:	18 95       	reti

000015b6 <ProcessOutBuf>:
* Function Name  : ProcessOutBuf
* Description    : Handle filling midi CB and Output HAL structures
* Input          : pointer to OutBuf & IO structures
*******************************************************************************/
void ProcessOutBuf(struct OutBufType *OutBuf, struct IOtype *IO)
{
    15b6:	2f 92       	push	r2
    15b8:	3f 92       	push	r3
    15ba:	4f 92       	push	r4
    15bc:	5f 92       	push	r5
    15be:	6f 92       	push	r6
    15c0:	7f 92       	push	r7
    15c2:	8f 92       	push	r8
    15c4:	9f 92       	push	r9
    15c6:	af 92       	push	r10
    15c8:	bf 92       	push	r11
    15ca:	cf 92       	push	r12
    15cc:	df 92       	push	r13
    15ce:	ef 92       	push	r14
    15d0:	ff 92       	push	r15
    15d2:	0f 93       	push	r16
    15d4:	1f 93       	push	r17
    15d6:	df 93       	push	r29
    15d8:	cf 93       	push	r28
    15da:	00 d0       	rcall	.+0      	; 0x15dc <ProcessOutBuf+0x26>
    15dc:	0f 92       	push	r0
    15de:	cd b7       	in	r28, 0x3d	; 61
    15e0:	de b7       	in	r29, 0x3e	; 62
    15e2:	2c 01       	movw	r4, r24
    15e4:	7b 01       	movw	r14, r22
    15e6:	0f 2e       	mov	r0, r31
    15e8:	f4 e4       	ldi	r31, 0x44	; 68
    15ea:	af 2e       	mov	r10, r31
    15ec:	bb 24       	eor	r11, r11
    15ee:	f0 2d       	mov	r31, r0
    15f0:	a6 0e       	add	r10, r22
    15f2:	b7 1e       	adc	r11, r23
    15f4:	0b ed       	ldi	r16, 0xDB	; 219
    15f6:	11 e0       	ldi	r17, 0x01	; 1

//Faders

	for(uint8_t i=0; i<25; i++) //25
    15f8:	0f 2e       	mov	r0, r31
    15fa:	fd e0       	ldi	r31, 0x0D	; 13
    15fc:	cf 2e       	mov	r12, r31
    15fe:	f2 e0       	ldi	r31, 0x02	; 2
    1600:	df 2e       	mov	r13, r31
    1602:	f0 2d       	mov	r31, r0
	{ 
		//	i=24;/////////////////////////////////////////////

		if( abs (IO->currFader[i] - IO->lastFader[i]) > 2 )
    1604:	d5 01       	movw	r26, r10
    1606:	59 96       	adiw	r26, 0x19	; 25
    1608:	4c 91       	ld	r20, X
    160a:	59 97       	sbiw	r26, 0x19	; 25
    160c:	84 2f       	mov	r24, r20
    160e:	90 e0       	ldi	r25, 0x00	; 0
    1610:	2c 91       	ld	r18, X
    1612:	82 1b       	sub	r24, r18
    1614:	91 09       	sbc	r25, r1
    1616:	99 23       	and	r25, r25
    1618:	1c f4       	brge	.+6      	; 0x1620 <ProcessOutBuf+0x6a>
    161a:	90 95       	com	r25
    161c:	81 95       	neg	r24
    161e:	9f 4f       	sbci	r25, 0xFF	; 255
    1620:	03 97       	sbiw	r24, 0x03	; 3
    1622:	74 f0       	brlt	.+28     	; 0x1640 <ProcessOutBuf+0x8a>
		{
			//add midi message
			MidiAddMsg(	0xb0 + (0x0F & pgm_read_byte(&( faderMass[ i*2 ] ))),
    1624:	f8 01       	movw	r30, r16
    1626:	84 91       	lpm	r24, Z+
						pgm_read_byte(&( faderMass[ i*2+1 ] )), 	
    1628:	31 96       	adiw	r30, 0x01	; 1
    162a:	e4 91       	lpm	r30, Z+
		//	i=24;/////////////////////////////////////////////

		if( abs (IO->currFader[i] - IO->lastFader[i]) > 2 )
		{
			//add midi message
			MidiAddMsg(	0xb0 + (0x0F & pgm_read_byte(&( faderMass[ i*2 ] ))),
    162c:	8f 70       	andi	r24, 0x0F	; 15
    162e:	80 55       	subi	r24, 0x50	; 80
    1630:	6e 2f       	mov	r22, r30
    1632:	0e 94 5f 01 	call	0x2be	; 0x2be <MidiAddMsg>
						pgm_read_byte(&( faderMass[ i*2+1 ] )), 	
						IO->currFader[i]);

			//num3(IO->currFader[i],4,5,6);

			IO->lastFader[i] = IO->currFader[i];
    1636:	d5 01       	movw	r26, r10
    1638:	59 96       	adiw	r26, 0x19	; 25
    163a:	8c 91       	ld	r24, X
    163c:	59 97       	sbiw	r26, 0x19	; 25
    163e:	8c 93       	st	X, r24
    1640:	08 94       	sec
    1642:	a1 1c       	adc	r10, r1
    1644:	b1 1c       	adc	r11, r1
    1646:	0e 5f       	subi	r16, 0xFE	; 254
    1648:	1f 4f       	sbci	r17, 0xFF	; 255
void ProcessOutBuf(struct OutBufType *OutBuf, struct IOtype *IO)
{

//Faders

	for(uint8_t i=0; i<25; i++) //25
    164a:	0c 15       	cp	r16, r12
    164c:	1d 05       	cpc	r17, r13
    164e:	d1 f6       	brne	.-76     	; 0x1604 <ProcessOutBuf+0x4e>
    1650:	40 e0       	ldi	r20, 0x00	; 0
    1652:	50 e0       	ldi	r21, 0x00	; 0


//Encoders		
	for(uint8_t i=0; i<10;  i++) 
	{
		BitWrite( 	BitIsSet(	IO->buttons[	pgm_read_byte(&(encMassA[i]))	],
    1654:	0f 2e       	mov	r0, r31
    1656:	ff e7       	ldi	r31, 0x7F	; 127
    1658:	cf 2e       	mov	r12, r31
    165a:	f1 e0       	ldi	r31, 0x01	; 1
    165c:	df 2e       	mov	r13, r31
    165e:	f0 2d       	mov	r31, r0
    1660:	09 e8       	ldi	r16, 0x89	; 137
    1662:	11 e0       	ldi	r17, 0x01	; 1
    1664:	61 e0       	ldi	r22, 0x01	; 1
    1666:	70 e0       	ldi	r23, 0x00	; 0
    1668:	d7 01       	movw	r26, r14
    166a:	a8 58       	subi	r26, 0x88	; 136
    166c:	bf 4f       	sbci	r27, 0xFF	; 255
    166e:	f6 01       	movw	r30, r12
    1670:	e4 0f       	add	r30, r20
    1672:	f5 1f       	adc	r31, r21
    1674:	84 91       	lpm	r24, Z+
    1676:	f8 01       	movw	r30, r16
    1678:	e4 0f       	add	r30, r20
    167a:	f5 1f       	adc	r31, r21
    167c:	e4 91       	lpm	r30, Z+
    167e:	9b 01       	movw	r18, r22
    1680:	02 c0       	rjmp	.+4      	; 0x1686 <ProcessOutBuf+0xd0>
    1682:	22 0f       	add	r18, r18
    1684:	33 1f       	adc	r19, r19
    1686:	ea 95       	dec	r30
    1688:	e2 f7       	brpl	.-8      	; 0x1682 <ProcessOutBuf+0xcc>
    168a:	90 e0       	ldi	r25, 0x00	; 0
    168c:	4d 96       	adiw	r24, 0x1d	; 29
    168e:	88 0f       	add	r24, r24
    1690:	99 1f       	adc	r25, r25
    1692:	f7 01       	movw	r30, r14
    1694:	e8 0f       	add	r30, r24
    1696:	f9 1f       	adc	r31, r25
    1698:	80 81       	ld	r24, Z
    169a:	91 81       	ldd	r25, Z+1	; 0x01
    169c:	28 23       	and	r18, r24
    169e:	39 23       	and	r19, r25
    16a0:	23 2b       	or	r18, r19
    16a2:	81 f0       	breq	.+32     	; 0x16c4 <ProcessOutBuf+0x10e>
    16a4:	cb 01       	movw	r24, r22
    16a6:	04 2e       	mov	r0, r20
    16a8:	02 c0       	rjmp	.+4      	; 0x16ae <ProcessOutBuf+0xf8>
    16aa:	88 0f       	add	r24, r24
    16ac:	99 1f       	adc	r25, r25
    16ae:	0a 94       	dec	r0
    16b0:	e2 f7       	brpl	.-8      	; 0x16aa <ProcessOutBuf+0xf4>
    16b2:	2d 91       	ld	r18, X+
    16b4:	3c 91       	ld	r19, X
    16b6:	11 97       	sbiw	r26, 0x01	; 1
    16b8:	82 2b       	or	r24, r18
    16ba:	93 2b       	or	r25, r19
    16bc:	11 96       	adiw	r26, 0x01	; 1
    16be:	9c 93       	st	X, r25
    16c0:	8e 93       	st	-X, r24
    16c2:	11 c0       	rjmp	.+34     	; 0x16e6 <ProcessOutBuf+0x130>
    16c4:	cb 01       	movw	r24, r22
    16c6:	04 2e       	mov	r0, r20
    16c8:	02 c0       	rjmp	.+4      	; 0x16ce <ProcessOutBuf+0x118>
    16ca:	88 0f       	add	r24, r24
    16cc:	99 1f       	adc	r25, r25
    16ce:	0a 94       	dec	r0
    16d0:	e2 f7       	brpl	.-8      	; 0x16ca <ProcessOutBuf+0x114>
    16d2:	80 95       	com	r24
    16d4:	90 95       	com	r25
    16d6:	2d 91       	ld	r18, X+
    16d8:	3c 91       	ld	r19, X
    16da:	11 97       	sbiw	r26, 0x01	; 1
    16dc:	82 23       	and	r24, r18
    16de:	93 23       	and	r25, r19
    16e0:	11 96       	adiw	r26, 0x01	; 1
    16e2:	9c 93       	st	X, r25
    16e4:	8e 93       	st	-X, r24
    16e6:	4f 5f       	subi	r20, 0xFF	; 255
    16e8:	5f 4f       	sbci	r21, 0xFF	; 255
		}
	}


//Encoders		
	for(uint8_t i=0; i<10;  i++) 
    16ea:	4a 30       	cpi	r20, 0x0A	; 10
    16ec:	51 05       	cpc	r21, r1
    16ee:	09 f0       	breq	.+2      	; 0x16f2 <ProcessOutBuf+0x13c>
    16f0:	be cf       	rjmp	.-132    	; 0x166e <ProcessOutBuf+0xb8>
    16f2:	66 24       	eor	r6, r6
    16f4:	77 24       	eor	r7, r7
    16f6:	88 24       	eor	r8, r8
    16f8:	99 24       	eor	r9, r9
    16fa:	83 94       	inc	r8
		);
	} 

	for(uint8_t i=0; i<10; i += 2)
	{
		if(BitIsSet(IO->lastEnc, i) && BitIsSet(IO->lastEnc, i+1))
    16fc:	f7 01       	movw	r30, r14
    16fe:	ea 58       	subi	r30, 0x8A	; 138
    1700:	ff 4f       	sbci	r31, 0xFF	; 255
    1702:	fb 83       	std	Y+3, r31	; 0x03
    1704:	ea 83       	std	Y+2, r30	; 0x02
							pgm_read_byte(&( encD[ i/2 ] )), 	
							0x7F);
			}			
		}

		BitWrite(BitIsSet(IO->currEnc, i),IO->lastEnc, i);
    1706:	0f 2e       	mov	r0, r31
    1708:	f8 e7       	ldi	r31, 0x78	; 120
    170a:	2f 2e       	mov	r2, r31
    170c:	33 24       	eor	r3, r3
    170e:	f0 2d       	mov	r31, r0
    1710:	2e 0c       	add	r2, r14
    1712:	3f 1c       	adc	r3, r15
		}
	}


//Encoders		
	for(uint8_t i=0; i<10;  i++) 
    1714:	69 82       	std	Y+1, r6	; 0x01
		);
	} 

	for(uint8_t i=0; i<10; i += 2)
	{
		if(BitIsSet(IO->lastEnc, i) && BitIsSet(IO->lastEnc, i+1))
    1716:	aa 81       	ldd	r26, Y+2	; 0x02
    1718:	bb 81       	ldd	r27, Y+3	; 0x03
    171a:	2d 91       	ld	r18, X+
    171c:	3c 91       	ld	r19, X
    171e:	aa 24       	eor	r10, r10
    1720:	bb 24       	eor	r11, r11
    1722:	a3 94       	inc	r10
    1724:	06 2c       	mov	r0, r6
    1726:	02 c0       	rjmp	.+4      	; 0x172c <ProcessOutBuf+0x176>
    1728:	aa 0c       	add	r10, r10
    172a:	bb 1c       	adc	r11, r11
    172c:	0a 94       	dec	r0
    172e:	e2 f7       	brpl	.-8      	; 0x1728 <ProcessOutBuf+0x172>
    1730:	65 01       	movw	r12, r10
    1732:	c5 01       	movw	r24, r10
    1734:	82 23       	and	r24, r18
    1736:	93 23       	and	r25, r19
    1738:	89 2b       	or	r24, r25
    173a:	09 f4       	brne	.+2      	; 0x173e <ProcessOutBuf+0x188>
    173c:	4f c0       	rjmp	.+158    	; 0x17dc <ProcessOutBuf+0x226>
    173e:	01 e0       	ldi	r16, 0x01	; 1
    1740:	10 e0       	ldi	r17, 0x00	; 0
    1742:	08 2c       	mov	r0, r8
    1744:	02 c0       	rjmp	.+4      	; 0x174a <ProcessOutBuf+0x194>
    1746:	00 0f       	add	r16, r16
    1748:	11 1f       	adc	r17, r17
    174a:	0a 94       	dec	r0
    174c:	e2 f7       	brpl	.-8      	; 0x1746 <ProcessOutBuf+0x190>
    174e:	c8 01       	movw	r24, r16
    1750:	82 23       	and	r24, r18
    1752:	93 23       	and	r25, r19
    1754:	89 2b       	or	r24, r25
    1756:	09 f4       	brne	.+2      	; 0x175a <ProcessOutBuf+0x1a4>
    1758:	41 c0       	rjmp	.+130    	; 0x17dc <ProcessOutBuf+0x226>
		{

			if( (BitIsSet(IO->currEnc, i) && BitIsReset(IO->currEnc, i+1)) )
    175a:	f1 01       	movw	r30, r2
    175c:	20 81       	ld	r18, Z
    175e:	31 81       	ldd	r19, Z+1	; 0x01
    1760:	c5 01       	movw	r24, r10
    1762:	82 23       	and	r24, r18
    1764:	93 23       	and	r25, r19
    1766:	89 2b       	or	r24, r25
    1768:	09 f1       	breq	.+66     	; 0x17ac <ProcessOutBuf+0x1f6>
    176a:	c8 01       	movw	r24, r16
    176c:	82 23       	and	r24, r18
    176e:	93 23       	and	r25, r19
    1770:	89 2b       	or	r24, r25
    1772:	09 f0       	breq	.+2      	; 0x1776 <ProcessOutBuf+0x1c0>
    1774:	3a c0       	rjmp	.+116    	; 0x17ea <ProcessOutBuf+0x234>
			{	//Encoder[i] ++ events
				MidiAddMsg(	0xB0 + (0x0F & pgm_read_byte(&( encA[ i/2 ] ))),
    1776:	86 2d       	mov	r24, r6
    1778:	86 95       	lsr	r24
    177a:	90 e0       	ldi	r25, 0x00	; 0
    177c:	e3 e9       	ldi	r30, 0x93	; 147
    177e:	f1 e0       	ldi	r31, 0x01	; 1
    1780:	e8 0f       	add	r30, r24
    1782:	f9 1f       	adc	r31, r25
    1784:	24 91       	lpm	r18, Z+
							pgm_read_byte(&( encD[ i/2 ] )), 	
    1786:	88 56       	subi	r24, 0x68	; 104
    1788:	9e 4f       	sbci	r25, 0xFE	; 254
    178a:	fc 01       	movw	r30, r24
    178c:	64 91       	lpm	r22, Z+
		if(BitIsSet(IO->lastEnc, i) && BitIsSet(IO->lastEnc, i+1))
		{

			if( (BitIsSet(IO->currEnc, i) && BitIsReset(IO->currEnc, i+1)) )
			{	//Encoder[i] ++ events
				MidiAddMsg(	0xB0 + (0x0F & pgm_read_byte(&( encA[ i/2 ] ))),
    178e:	e2 2f       	mov	r30, r18
    1790:	ef 70       	andi	r30, 0x0F	; 15
    1792:	8e 2f       	mov	r24, r30
    1794:	80 55       	subi	r24, 0x50	; 80
    1796:	41 e0       	ldi	r20, 0x01	; 1
    1798:	0e 94 5f 01 	call	0x2be	; 0x2be <MidiAddMsg>
							pgm_read_byte(&( encD[ i/2 ] )), 	
							0x01);									
			}

			if( (BitIsReset(IO->currEnc, i) && BitIsSet(IO->currEnc, i+1)) )
    179c:	d1 01       	movw	r26, r2
    179e:	2d 91       	ld	r18, X+
    17a0:	3c 91       	ld	r19, X
    17a2:	c5 01       	movw	r24, r10
    17a4:	82 23       	and	r24, r18
    17a6:	93 23       	and	r25, r19
    17a8:	89 2b       	or	r24, r25
    17aa:	f9 f4       	brne	.+62     	; 0x17ea <ProcessOutBuf+0x234>
    17ac:	c9 01       	movw	r24, r18
    17ae:	80 23       	and	r24, r16
    17b0:	91 23       	and	r25, r17
    17b2:	89 2b       	or	r24, r25
    17b4:	19 f1       	breq	.+70     	; 0x17fc <ProcessOutBuf+0x246>
			{	//Encoder[i] -- events
				MidiAddMsg(	0xB0 + (0x0F & pgm_read_byte(&( encA[ i/2 ] ))),
    17b6:	89 81       	ldd	r24, Y+1	; 0x01
    17b8:	86 95       	lsr	r24
    17ba:	90 e0       	ldi	r25, 0x00	; 0
    17bc:	e3 e9       	ldi	r30, 0x93	; 147
    17be:	f1 e0       	ldi	r31, 0x01	; 1
    17c0:	e8 0f       	add	r30, r24
    17c2:	f9 1f       	adc	r31, r25
    17c4:	24 91       	lpm	r18, Z+
							pgm_read_byte(&( encD[ i/2 ] )), 	
    17c6:	88 56       	subi	r24, 0x68	; 104
    17c8:	9e 4f       	sbci	r25, 0xFE	; 254
    17ca:	fc 01       	movw	r30, r24
    17cc:	64 91       	lpm	r22, Z+
							0x01);									
			}

			if( (BitIsReset(IO->currEnc, i) && BitIsSet(IO->currEnc, i+1)) )
			{	//Encoder[i] -- events
				MidiAddMsg(	0xB0 + (0x0F & pgm_read_byte(&( encA[ i/2 ] ))),
    17ce:	e2 2f       	mov	r30, r18
    17d0:	ef 70       	andi	r30, 0x0F	; 15
    17d2:	8e 2f       	mov	r24, r30
    17d4:	80 55       	subi	r24, 0x50	; 80
    17d6:	4f e7       	ldi	r20, 0x7F	; 127
    17d8:	0e 94 5f 01 	call	0x2be	; 0x2be <MidiAddMsg>
							pgm_read_byte(&( encD[ i/2 ] )), 	
							0x7F);
			}			
		}

		BitWrite(BitIsSet(IO->currEnc, i),IO->lastEnc, i);
    17dc:	d1 01       	movw	r26, r2
    17de:	8d 91       	ld	r24, X+
    17e0:	9c 91       	ld	r25, X
    17e2:	8c 21       	and	r24, r12
    17e4:	9d 21       	and	r25, r13
    17e6:	89 2b       	or	r24, r25
    17e8:	49 f0       	breq	.+18     	; 0x17fc <ProcessOutBuf+0x246>
    17ea:	ea 81       	ldd	r30, Y+2	; 0x02
    17ec:	fb 81       	ldd	r31, Y+3	; 0x03
    17ee:	80 81       	ld	r24, Z
    17f0:	91 81       	ldd	r25, Z+1	; 0x01
    17f2:	8c 29       	or	r24, r12
    17f4:	9d 29       	or	r25, r13
    17f6:	91 83       	std	Z+1, r25	; 0x01
    17f8:	80 83       	st	Z, r24
    17fa:	0c c0       	rjmp	.+24     	; 0x1814 <ProcessOutBuf+0x25e>
    17fc:	c5 01       	movw	r24, r10
    17fe:	80 95       	com	r24
    1800:	90 95       	com	r25
    1802:	aa 81       	ldd	r26, Y+2	; 0x02
    1804:	bb 81       	ldd	r27, Y+3	; 0x03
    1806:	2d 91       	ld	r18, X+
    1808:	3c 91       	ld	r19, X
    180a:	11 97       	sbiw	r26, 0x01	; 1
    180c:	82 23       	and	r24, r18
    180e:	93 23       	and	r25, r19
    1810:	8d 93       	st	X+, r24
    1812:	9c 93       	st	X, r25
		BitWrite(BitIsSet(IO->currEnc, i+1),IO->lastEnc, i+1);
    1814:	21 e0       	ldi	r18, 0x01	; 1
    1816:	30 e0       	ldi	r19, 0x00	; 0
    1818:	08 2c       	mov	r0, r8
    181a:	02 c0       	rjmp	.+4      	; 0x1820 <ProcessOutBuf+0x26a>
    181c:	22 0f       	add	r18, r18
    181e:	33 1f       	adc	r19, r19
    1820:	0a 94       	dec	r0
    1822:	e2 f7       	brpl	.-8      	; 0x181c <ProcessOutBuf+0x266>
    1824:	f1 01       	movw	r30, r2
    1826:	80 81       	ld	r24, Z
    1828:	91 81       	ldd	r25, Z+1	; 0x01
    182a:	82 23       	and	r24, r18
    182c:	93 23       	and	r25, r19
    182e:	89 2b       	or	r24, r25
    1830:	51 f0       	breq	.+20     	; 0x1846 <ProcessOutBuf+0x290>
    1832:	aa 81       	ldd	r26, Y+2	; 0x02
    1834:	bb 81       	ldd	r27, Y+3	; 0x03
    1836:	8d 91       	ld	r24, X+
    1838:	9c 91       	ld	r25, X
    183a:	11 97       	sbiw	r26, 0x01	; 1
    183c:	82 2b       	or	r24, r18
    183e:	93 2b       	or	r25, r19
    1840:	8d 93       	st	X+, r24
    1842:	9c 93       	st	X, r25
    1844:	0b c0       	rjmp	.+22     	; 0x185c <ProcessOutBuf+0x2a6>
    1846:	c9 01       	movw	r24, r18
    1848:	80 95       	com	r24
    184a:	90 95       	com	r25
    184c:	ea 81       	ldd	r30, Y+2	; 0x02
    184e:	fb 81       	ldd	r31, Y+3	; 0x03
    1850:	20 81       	ld	r18, Z
    1852:	31 81       	ldd	r19, Z+1	; 0x01
    1854:	82 23       	and	r24, r18
    1856:	93 23       	and	r25, r19
    1858:	91 83       	std	Z+1, r25	; 0x01
    185a:	80 83       	st	Z, r24
    185c:	22 e0       	ldi	r18, 0x02	; 2
    185e:	30 e0       	ldi	r19, 0x00	; 0
    1860:	62 0e       	add	r6, r18
    1862:	73 1e       	adc	r7, r19
    1864:	82 0e       	add	r8, r18
    1866:	93 1e       	adc	r9, r19
									//     
					IO->currEnc, i  //  []  
		);
	} 

	for(uint8_t i=0; i<10; i += 2)
    1868:	3a e0       	ldi	r19, 0x0A	; 10
    186a:	63 16       	cp	r6, r19
    186c:	71 04       	cpc	r7, r1
    186e:	09 f0       	breq	.+2      	; 0x1872 <ProcessOutBuf+0x2bc>
    1870:	51 cf       	rjmp	.-350    	; 0x1714 <ProcessOutBuf+0x15e>
//Progress Bar
uint8_t bl, br;

#define THRESHOLD 	15

	if(IO->Flash >0 && OutBuf->barLeft > THRESHOLD) 
    1872:	f7 01       	movw	r30, r14
    1874:	ec 57       	subi	r30, 0x7C	; 124
    1876:	ff 4f       	sbci	r31, 0xFF	; 255
    1878:	80 81       	ld	r24, Z
    187a:	88 23       	and	r24, r24
    187c:	29 f0       	breq	.+10     	; 0x1888 <ProcessOutBuf+0x2d2>
    187e:	d2 01       	movw	r26, r4
    1880:	9c 91       	ld	r25, X
    1882:	90 31       	cpi	r25, 0x10	; 16
    1884:	28 f0       	brcs	.+10     	; 0x1890 <ProcessOutBuf+0x2da>
    1886:	03 c0       	rjmp	.+6      	; 0x188e <ProcessOutBuf+0x2d8>
		bl = 0;
	else 
		bl = OutBuf->barLeft;
    1888:	f2 01       	movw	r30, r4
    188a:	90 81       	ld	r25, Z
    188c:	08 c0       	rjmp	.+16     	; 0x189e <ProcessOutBuf+0x2e8>

	if(IO->Flash >0 && OutBuf->barRight > THRESHOLD)
    188e:	90 e0       	ldi	r25, 0x00	; 0
    1890:	d2 01       	movw	r26, r4
    1892:	11 96       	adiw	r26, 0x01	; 1
    1894:	8c 91       	ld	r24, X
    1896:	80 31       	cpi	r24, 0x10	; 16
    1898:	10 f0       	brcs	.+4      	; 0x189e <ProcessOutBuf+0x2e8>
    189a:	20 e0       	ldi	r18, 0x00	; 0
    189c:	02 c0       	rjmp	.+4      	; 0x18a2 <ProcessOutBuf+0x2ec>
		br = 0;
	else 
		br = OutBuf->barRight;
    189e:	f2 01       	movw	r30, r4
    18a0:	21 81       	ldd	r18, Z+1	; 0x01


	if( bl > 8 ) 		IO->light[7] = 255;	//1	
    18a2:	99 30       	cpi	r25, 0x09	; 9
    18a4:	38 f0       	brcs	.+14     	; 0x18b4 <ProcessOutBuf+0x2fe>
    18a6:	8f ef       	ldi	r24, 0xFF	; 255
    18a8:	d7 01       	movw	r26, r14
    18aa:	17 96       	adiw	r26, 0x07	; 7
    18ac:	8c 93       	st	X, r24
	else 				IO->light[7] = pgm_read_byte(&( barMass[ bl  ]	));

	if( bl < 9) 		IO->light[5] = 0;
	else
	{
		if( bl > 16) 	IO->light[5] = 255;   //2
    18ae:	91 31       	cpi	r25, 0x11	; 17
    18b0:	80 f4       	brcc	.+32     	; 0x18d2 <ProcessOutBuf+0x31c>
    18b2:	13 c0       	rjmp	.+38     	; 0x18da <ProcessOutBuf+0x324>
	else 
		br = OutBuf->barRight;


	if( bl > 8 ) 		IO->light[7] = 255;	//1	
	else 				IO->light[7] = pgm_read_byte(&( barMass[ bl  ]	));
    18b4:	ed e9       	ldi	r30, 0x9D	; 157
    18b6:	f1 e0       	ldi	r31, 0x01	; 1
    18b8:	e9 0f       	add	r30, r25
    18ba:	f1 1d       	adc	r31, r1
    18bc:	e4 91       	lpm	r30, Z+
    18be:	d7 01       	movw	r26, r14
    18c0:	17 96       	adiw	r26, 0x07	; 7
    18c2:	ec 93       	st	X, r30
    18c4:	17 97       	sbiw	r26, 0x07	; 7

	if( bl < 9) 		IO->light[5] = 0;
    18c6:	15 96       	adiw	r26, 0x05	; 5
    18c8:	1c 92       	st	X, r1
		else 			IO->light[5] = pgm_read_byte(&( barMass[ bl - 8] )); 
	}
	

uint8_t s1, s2;
	if( bl < 17) 	s1 = 0; 				//3 - half
    18ca:	91 31       	cpi	r25, 0x11	; 17
    18cc:	80 f4       	brcc	.+32     	; 0x18ee <ProcessOutBuf+0x338>
    18ce:	80 e0       	ldi	r24, 0x00	; 0
    18d0:	13 c0       	rjmp	.+38     	; 0x18f8 <ProcessOutBuf+0x342>
	else 				IO->light[7] = pgm_read_byte(&( barMass[ bl  ]	));

	if( bl < 9) 		IO->light[5] = 0;
	else
	{
		if( bl > 16) 	IO->light[5] = 255;   //2
    18d2:	8f ef       	ldi	r24, 0xFF	; 255
    18d4:	f7 01       	movw	r30, r14
    18d6:	85 83       	std	Z+5, r24	; 0x05
    18d8:	0a c0       	rjmp	.+20     	; 0x18ee <ProcessOutBuf+0x338>
		else 			IO->light[5] = pgm_read_byte(&( barMass[ bl - 8] )); 
    18da:	e9 2f       	mov	r30, r25
    18dc:	f0 e0       	ldi	r31, 0x00	; 0
    18de:	eb 56       	subi	r30, 0x6B	; 107
    18e0:	fe 4f       	sbci	r31, 0xFE	; 254
    18e2:	e4 91       	lpm	r30, Z+
    18e4:	d7 01       	movw	r26, r14
    18e6:	15 96       	adiw	r26, 0x05	; 5
    18e8:	ec 93       	st	X, r30
    18ea:	80 e0       	ldi	r24, 0x00	; 0
    18ec:	05 c0       	rjmp	.+10     	; 0x18f8 <ProcessOutBuf+0x342>
	}
	

uint8_t s1, s2;
	if( bl < 17) 	s1 = 0; 				//3 - half
	else 			s1 = pgm_read_byte(&( barMass[ bl - 16]));
    18ee:	e9 2f       	mov	r30, r25
    18f0:	f0 e0       	ldi	r31, 0x00	; 0
    18f2:	e3 57       	subi	r30, 0x73	; 115
    18f4:	fe 4f       	sbci	r31, 0xFE	; 254
    18f6:	84 91       	lpm	r24, Z+
		
	if( br > 4) 	s2 = 225;
    18f8:	25 30       	cpi	r18, 0x05	; 5
    18fa:	98 f4       	brcc	.+38     	; 0x1922 <ProcessOutBuf+0x36c>
	else
	{
		if( br == 0)s2 = 0;
    18fc:	22 23       	and	r18, r18
    18fe:	09 f4       	brne	.+2      	; 0x1902 <ProcessOutBuf+0x34c>
    1900:	07 c2       	rjmp	.+1038   	; 0x1d10 <ProcessOutBuf+0x75a>
		else 		s2 = pgm_read_byte(&( barMass[ br + 4]	)) - 30;
    1902:	e2 2f       	mov	r30, r18
    1904:	f0 e0       	ldi	r31, 0x00	; 0
    1906:	ef 55       	subi	r30, 0x5F	; 95
    1908:	fe 4f       	sbci	r31, 0xFE	; 254
    190a:	e4 91       	lpm	r30, Z+
	}
	IO->light[6] = s1 | s2;
    190c:	ee 51       	subi	r30, 0x1E	; 30
    190e:	e8 2b       	or	r30, r24
    1910:	d7 01       	movw	r26, r14
    1912:	16 96       	adiw	r26, 0x06	; 6
    1914:	ec 93       	st	X, r30
    1916:	16 97       	sbiw	r26, 0x06	; 6


	if( br < 5) 	IO->light[9] = 0;		//4
    1918:	19 96       	adiw	r26, 0x09	; 9
    191a:	1c 92       	st	X, r1
	{
		if( br > 12)IO->light[9] = 255;
		else 		IO->light[9] = pgm_read_byte(&( barMass[ br - 4] ));
	} 

	if( br < 13) 	IO->light[8] = 0;  	//5
    191c:	2d 30       	cpi	r18, 0x0D	; 13
    191e:	a0 f4       	brcc	.+40     	; 0x1948 <ProcessOutBuf+0x392>
    1920:	10 c0       	rjmp	.+32     	; 0x1942 <ProcessOutBuf+0x38c>
	else
	{
		if( br == 0)s2 = 0;
		else 		s2 = pgm_read_byte(&( barMass[ br + 4]	)) - 30;
	}
	IO->light[6] = s1 | s2;
    1922:	81 6e       	ori	r24, 0xE1	; 225
    1924:	f7 01       	movw	r30, r14
    1926:	86 83       	std	Z+6, r24	; 0x06


	if( br < 5) 	IO->light[9] = 0;		//4
	else
	{
		if( br > 12)IO->light[9] = 255;
    1928:	2d 30       	cpi	r18, 0x0D	; 13
    192a:	18 f0       	brcs	.+6      	; 0x1932 <ProcessOutBuf+0x37c>
    192c:	8f ef       	ldi	r24, 0xFF	; 255
    192e:	81 87       	std	Z+9, r24	; 0x09
    1930:	0b c0       	rjmp	.+22     	; 0x1948 <ProcessOutBuf+0x392>
		else 		IO->light[9] = pgm_read_byte(&( barMass[ br - 4] ));
    1932:	e2 2f       	mov	r30, r18
    1934:	f0 e0       	ldi	r31, 0x00	; 0
    1936:	e7 56       	subi	r30, 0x67	; 103
    1938:	fe 4f       	sbci	r31, 0xFE	; 254
    193a:	e4 91       	lpm	r30, Z+
    193c:	d7 01       	movw	r26, r14
    193e:	19 96       	adiw	r26, 0x09	; 9
    1940:	ec 93       	st	X, r30
	} 

	if( br < 13) 	IO->light[8] = 0;  	//5
    1942:	f7 01       	movw	r30, r14
    1944:	10 86       	std	Z+8, r1	; 0x08
    1946:	08 c0       	rjmp	.+16     	; 0x1958 <ProcessOutBuf+0x3a2>
	else 			IO->light[8] = pgm_read_byte(&( barMass[ br - 12]));
    1948:	e2 2f       	mov	r30, r18
    194a:	f0 e0       	ldi	r31, 0x00	; 0
    194c:	ef 56       	subi	r30, 0x6F	; 111
    194e:	fe 4f       	sbci	r31, 0xFE	; 254
    1950:	e4 91       	lpm	r30, Z+
    1952:	d7 01       	movw	r26, r14
    1954:	18 96       	adiw	r26, 0x08	; 8
    1956:	ec 93       	st	X, r30


//Volume Bar	
	if( OutBuf->levelLeft > 8) 
    1958:	f2 01       	movw	r30, r4
    195a:	82 81       	ldd	r24, Z+2	; 0x02
    195c:	89 30       	cpi	r24, 0x09	; 9
    195e:	28 f0       	brcs	.+10     	; 0x196a <ProcessOutBuf+0x3b4>
		IO->light[10] = 255;
    1960:	8f ef       	ldi	r24, 0xFF	; 255
    1962:	d7 01       	movw	r26, r14
    1964:	1a 96       	adiw	r26, 0x0a	; 10
    1966:	8c 93       	st	X, r24
    1968:	08 c0       	rjmp	.+16     	; 0x197a <ProcessOutBuf+0x3c4>
	else 
		IO->light[10] = pgm_read_byte(&( levelbarMass[ OutBuf->levelLeft ] ));
    196a:	e6 ea       	ldi	r30, 0xA6	; 166
    196c:	f1 e0       	ldi	r31, 0x01	; 1
    196e:	e8 0f       	add	r30, r24
    1970:	f1 1d       	adc	r31, r1
    1972:	e4 91       	lpm	r30, Z+
    1974:	d7 01       	movw	r26, r14
    1976:	1a 96       	adiw	r26, 0x0a	; 10
    1978:	ec 93       	st	X, r30


	if( OutBuf->levelLeft < 9) 
    197a:	d2 01       	movw	r26, r4
    197c:	12 96       	adiw	r26, 0x02	; 2
    197e:	ec 91       	ld	r30, X
    1980:	e9 30       	cpi	r30, 0x09	; 9
    1982:	10 f4       	brcc	.+4      	; 0x1988 <ProcessOutBuf+0x3d2>
    1984:	20 e0       	ldi	r18, 0x00	; 0
    1986:	04 c0       	rjmp	.+8      	; 0x1990 <ProcessOutBuf+0x3da>
		s1 = 0;
	else 
		s1 = pgm_read_byte(&( levelbarMass[ OutBuf->levelLeft - 8 ] ));
    1988:	f0 e0       	ldi	r31, 0x00	; 0
    198a:	e2 56       	subi	r30, 0x62	; 98
    198c:	fe 4f       	sbci	r31, 0xFE	; 254
    198e:	24 91       	lpm	r18, Z+
	

	if( OutBuf->levelRight < 9) 
    1990:	f2 01       	movw	r30, r4
    1992:	93 81       	ldd	r25, Z+3	; 0x03
    1994:	99 30       	cpi	r25, 0x09	; 9
    1996:	10 f4       	brcc	.+4      	; 0x199c <ProcessOutBuf+0x3e6>
    1998:	80 e0       	ldi	r24, 0x00	; 0
    199a:	05 c0       	rjmp	.+10     	; 0x19a6 <ProcessOutBuf+0x3f0>
		s2 = 0;
	else 
		s2 = pgm_read_byte(&( levelbarMass[ OutBuf->levelRight ] ));
    199c:	e6 ea       	ldi	r30, 0xA6	; 166
    199e:	f1 e0       	ldi	r31, 0x01	; 1
    19a0:	e9 0f       	add	r30, r25
    19a2:	f1 1d       	adc	r31, r1
    19a4:	84 91       	lpm	r24, Z+


	IO->light[12] = s1 | s2;
    19a6:	82 2b       	or	r24, r18
    19a8:	d7 01       	movw	r26, r14
    19aa:	1c 96       	adiw	r26, 0x0c	; 12
    19ac:	8c 93       	st	X, r24
    19ae:	1c 97       	sbiw	r26, 0x0c	; 12


	if( OutBuf->levelRight > 8) 
    19b0:	f2 01       	movw	r30, r4
    19b2:	83 81       	ldd	r24, Z+3	; 0x03
    19b4:	89 30       	cpi	r24, 0x09	; 9
    19b6:	20 f0       	brcs	.+8      	; 0x19c0 <ProcessOutBuf+0x40a>
		IO->light[11] = 255;
    19b8:	8f ef       	ldi	r24, 0xFF	; 255
    19ba:	1b 96       	adiw	r26, 0x0b	; 11
    19bc:	8c 93       	st	X, r24
    19be:	94 c1       	rjmp	.+808    	; 0x1ce8 <ProcessOutBuf+0x732>
	else 
		IO->light[11] = pgm_read_byte(&( levelbarMass[ OutBuf->levelRight ] ));
    19c0:	e6 ea       	ldi	r30, 0xA6	; 166
    19c2:	f1 e0       	ldi	r31, 0x01	; 1
    19c4:	e8 0f       	add	r30, r24
    19c6:	f1 1d       	adc	r31, r1
    19c8:	e4 91       	lpm	r30, Z+
    19ca:	d7 01       	movw	r26, r14
    19cc:	1b 96       	adiw	r26, 0x0b	; 11
    19ce:	ec 93       	st	X, r30
    19d0:	8b c1       	rjmp	.+790    	; 0x1ce8 <ProcessOutBuf+0x732>

	uint8_t n=0;

	for(uint8_t i = 0; i<120; i++)
	{
		n++;//0-48
    19d2:	7f 5f       	subi	r23, 0xFF	; 255
		if(i==40) i=111;
    19d4:	68 32       	cpi	r22, 0x28	; 40
    19d6:	09 f4       	brne	.+2      	; 0x19da <ProcessOutBuf+0x424>
    19d8:	61 2f       	mov	r22, r17

		uint8_t A = BitIsSet(IO->lightIN[n>>3], n-(n>>3)*8);
    19da:	87 2f       	mov	r24, r23
    19dc:	86 95       	lsr	r24
    19de:	86 95       	lsr	r24
    19e0:	86 95       	lsr	r24
    19e2:	90 e0       	ldi	r25, 0x00	; 0
    19e4:	ac 01       	movw	r20, r24
    19e6:	44 0f       	add	r20, r20
    19e8:	55 1f       	adc	r21, r21
    19ea:	44 0f       	add	r20, r20
    19ec:	55 1f       	adc	r21, r21
    19ee:	44 0f       	add	r20, r20
    19f0:	55 1f       	adc	r21, r21
    19f2:	27 2f       	mov	r18, r23
    19f4:	30 e0       	ldi	r19, 0x00	; 0
    19f6:	24 1b       	sub	r18, r20
    19f8:	35 0b       	sbc	r19, r21
		uint8_t B = BitIsSet(IO->lightFL[n>>3], n-(n>>3)*8);
    19fa:	f7 01       	movw	r30, r14
    19fc:	e8 0f       	add	r30, r24
    19fe:	f9 1f       	adc	r31, r25
    1a00:	83 8d       	ldd	r24, Z+27	; 0x1b
    1a02:	90 e0       	ldi	r25, 0x00	; 0
    1a04:	02 2e       	mov	r0, r18
    1a06:	02 c0       	rjmp	.+4      	; 0x1a0c <ProcessOutBuf+0x456>
    1a08:	95 95       	asr	r25
    1a0a:	87 95       	ror	r24
    1a0c:	0a 94       	dec	r0
    1a0e:	e2 f7       	brpl	.-8      	; 0x1a08 <ProcessOutBuf+0x452>
    1a10:	38 2f       	mov	r19, r24
    1a12:	31 70       	andi	r19, 0x01	; 1

		if(A && B)
    1a14:	84 89       	ldd	r24, Z+20	; 0x14
    1a16:	90 e0       	ldi	r25, 0x00	; 0
    1a18:	02 c0       	rjmp	.+4      	; 0x1a1e <ProcessOutBuf+0x468>
    1a1a:	95 95       	asr	r25
    1a1c:	87 95       	ror	r24
    1a1e:	2a 95       	dec	r18
    1a20:	e2 f7       	brpl	.-8      	; 0x1a1a <ProcessOutBuf+0x464>
    1a22:	80 ff       	sbrs	r24, 0
    1a24:	42 c0       	rjmp	.+132    	; 0x1aaa <ProcessOutBuf+0x4f4>
    1a26:	33 23       	and	r19, r19
    1a28:	09 f4       	brne	.+2      	; 0x1a2c <ProcessOutBuf+0x476>
    1a2a:	76 c1       	rjmp	.+748    	; 0x1d18 <ProcessOutBuf+0x762>
		{
			if(IO->Flash) IO->light[i>>3] |=  (1<<  (i-(i>>3)*8)   );
    1a2c:	f6 01       	movw	r30, r12
    1a2e:	80 81       	ld	r24, Z
    1a30:	88 23       	and	r24, r24
    1a32:	e9 f0       	breq	.+58     	; 0x1a6e <ProcessOutBuf+0x4b8>
    1a34:	26 2f       	mov	r18, r22
    1a36:	26 95       	lsr	r18
    1a38:	26 95       	lsr	r18
    1a3a:	26 95       	lsr	r18
    1a3c:	30 e0       	ldi	r19, 0x00	; 0
    1a3e:	f7 01       	movw	r30, r14
    1a40:	e2 0f       	add	r30, r18
    1a42:	f3 1f       	adc	r31, r19
    1a44:	22 0f       	add	r18, r18
    1a46:	33 1f       	adc	r19, r19
    1a48:	22 0f       	add	r18, r18
    1a4a:	33 1f       	adc	r19, r19
    1a4c:	22 0f       	add	r18, r18
    1a4e:	33 1f       	adc	r19, r19
    1a50:	86 2f       	mov	r24, r22
    1a52:	90 e0       	ldi	r25, 0x00	; 0
    1a54:	82 1b       	sub	r24, r18
    1a56:	93 0b       	sbc	r25, r19
    1a58:	9d 01       	movw	r18, r26
    1a5a:	02 c0       	rjmp	.+4      	; 0x1a60 <ProcessOutBuf+0x4aa>
    1a5c:	22 0f       	add	r18, r18
    1a5e:	33 1f       	adc	r19, r19
    1a60:	8a 95       	dec	r24
    1a62:	e2 f7       	brpl	.-8      	; 0x1a5c <ProcessOutBuf+0x4a6>
    1a64:	c9 01       	movw	r24, r18
    1a66:	20 81       	ld	r18, Z
    1a68:	28 2b       	or	r18, r24
    1a6a:	20 83       	st	Z, r18
    1a6c:	5f c0       	rjmp	.+190    	; 0x1b2c <ProcessOutBuf+0x576>
			else 		  IO->light[i>>3] &= ~(1<<  (i-(i>>3)*8)   );
    1a6e:	26 2f       	mov	r18, r22
    1a70:	26 95       	lsr	r18
    1a72:	26 95       	lsr	r18
    1a74:	26 95       	lsr	r18
    1a76:	30 e0       	ldi	r19, 0x00	; 0
    1a78:	f7 01       	movw	r30, r14
    1a7a:	e2 0f       	add	r30, r18
    1a7c:	f3 1f       	adc	r31, r19
    1a7e:	22 0f       	add	r18, r18
    1a80:	33 1f       	adc	r19, r19
    1a82:	22 0f       	add	r18, r18
    1a84:	33 1f       	adc	r19, r19
    1a86:	22 0f       	add	r18, r18
    1a88:	33 1f       	adc	r19, r19
    1a8a:	86 2f       	mov	r24, r22
    1a8c:	90 e0       	ldi	r25, 0x00	; 0
    1a8e:	82 1b       	sub	r24, r18
    1a90:	93 0b       	sbc	r25, r19
    1a92:	9d 01       	movw	r18, r26
    1a94:	02 c0       	rjmp	.+4      	; 0x1a9a <ProcessOutBuf+0x4e4>
    1a96:	22 0f       	add	r18, r18
    1a98:	33 1f       	adc	r19, r19
    1a9a:	8a 95       	dec	r24
    1a9c:	e2 f7       	brpl	.-8      	; 0x1a96 <ProcessOutBuf+0x4e0>
    1a9e:	c9 01       	movw	r24, r18
    1aa0:	80 95       	com	r24
    1aa2:	20 81       	ld	r18, Z
    1aa4:	82 23       	and	r24, r18
    1aa6:	80 83       	st	Z, r24
    1aa8:	41 c0       	rjmp	.+130    	; 0x1b2c <ProcessOutBuf+0x576>
		}

		if(!A && B)
    1aaa:	33 23       	and	r19, r19
    1aac:	09 f4       	brne	.+2      	; 0x1ab0 <ProcessOutBuf+0x4fa>
    1aae:	51 c1       	rjmp	.+674    	; 0x1d52 <ProcessOutBuf+0x79c>
		{	
			if(IO->Blink)IO->light[i>>3] |=  (1<<  (i-(i>>3)*8)   );
    1ab0:	f5 01       	movw	r30, r10
    1ab2:	80 81       	ld	r24, Z
    1ab4:	88 23       	and	r24, r24
    1ab6:	e9 f0       	breq	.+58     	; 0x1af2 <ProcessOutBuf+0x53c>
    1ab8:	26 2f       	mov	r18, r22
    1aba:	26 95       	lsr	r18
    1abc:	26 95       	lsr	r18
    1abe:	26 95       	lsr	r18
    1ac0:	30 e0       	ldi	r19, 0x00	; 0
    1ac2:	f7 01       	movw	r30, r14
    1ac4:	e2 0f       	add	r30, r18
    1ac6:	f3 1f       	adc	r31, r19
    1ac8:	22 0f       	add	r18, r18
    1aca:	33 1f       	adc	r19, r19
    1acc:	22 0f       	add	r18, r18
    1ace:	33 1f       	adc	r19, r19
    1ad0:	22 0f       	add	r18, r18
    1ad2:	33 1f       	adc	r19, r19
    1ad4:	86 2f       	mov	r24, r22
    1ad6:	90 e0       	ldi	r25, 0x00	; 0
    1ad8:	82 1b       	sub	r24, r18
    1ada:	93 0b       	sbc	r25, r19
    1adc:	9d 01       	movw	r18, r26
    1ade:	02 c0       	rjmp	.+4      	; 0x1ae4 <ProcessOutBuf+0x52e>
    1ae0:	22 0f       	add	r18, r18
    1ae2:	33 1f       	adc	r19, r19
    1ae4:	8a 95       	dec	r24
    1ae6:	e2 f7       	brpl	.-8      	; 0x1ae0 <ProcessOutBuf+0x52a>
    1ae8:	c9 01       	movw	r24, r18
    1aea:	20 81       	ld	r18, Z
    1aec:	28 2b       	or	r18, r24
    1aee:	20 83       	st	Z, r18
    1af0:	1d c0       	rjmp	.+58     	; 0x1b2c <ProcessOutBuf+0x576>
			else 		 IO->light[i>>3] &= ~(1<<  (i-(i>>3)*8)   );
    1af2:	26 2f       	mov	r18, r22
    1af4:	26 95       	lsr	r18
    1af6:	26 95       	lsr	r18
    1af8:	26 95       	lsr	r18
    1afa:	30 e0       	ldi	r19, 0x00	; 0
    1afc:	f7 01       	movw	r30, r14
    1afe:	e2 0f       	add	r30, r18
    1b00:	f3 1f       	adc	r31, r19
    1b02:	22 0f       	add	r18, r18
    1b04:	33 1f       	adc	r19, r19
    1b06:	22 0f       	add	r18, r18
    1b08:	33 1f       	adc	r19, r19
    1b0a:	22 0f       	add	r18, r18
    1b0c:	33 1f       	adc	r19, r19
    1b0e:	86 2f       	mov	r24, r22
    1b10:	90 e0       	ldi	r25, 0x00	; 0
    1b12:	82 1b       	sub	r24, r18
    1b14:	93 0b       	sbc	r25, r19
    1b16:	9d 01       	movw	r18, r26
    1b18:	02 c0       	rjmp	.+4      	; 0x1b1e <ProcessOutBuf+0x568>
    1b1a:	22 0f       	add	r18, r18
    1b1c:	33 1f       	adc	r19, r19
    1b1e:	8a 95       	dec	r24
    1b20:	e2 f7       	brpl	.-8      	; 0x1b1a <ProcessOutBuf+0x564>
    1b22:	c9 01       	movw	r24, r18
    1b24:	80 95       	com	r24
    1b26:	20 81       	ld	r18, Z
    1b28:	82 23       	and	r24, r18
    1b2a:	80 83       	st	Z, r24
/*--------------------------- Backlight --------------------------------------*/
	//	0-39   111-119

	uint8_t n=0;

	for(uint8_t i = 0; i<120; i++)
    1b2c:	6f 5f       	subi	r22, 0xFF	; 255
    1b2e:	68 37       	cpi	r22, 0x78	; 120
    1b30:	08 f4       	brcc	.+2      	; 0x1b34 <ProcessOutBuf+0x57e>
    1b32:	4f cf       	rjmp	.-354    	; 0x19d2 <ProcessOutBuf+0x41c>
    1b34:	10 e0       	ldi	r17, 0x00	; 0
    1b36:	01 e0       	ldi	r16, 0x01	; 1
				i == 41 ||
				i == 44 ||
				i == 45 ||
				i == 46 	) i++;

		if( BitIsReset(IO->lastButtons[i/16], (i%16) ) &&  BitIsSet(IO->buttons[i/16],	(i%16) ) )
    1b38:	aa 24       	eor	r10, r10
    1b3a:	bb 24       	eor	r11, r11
    1b3c:	a3 94       	inc	r10

		}

		if( BitIsSet(IO->lastButtons[i/16], (i%16) ) &&  BitIsReset(IO->buttons[i/16],	(i%16) ) )
		{	//event: button off
			MidiAddMsg(	0x80 + (0x0F & pgm_read_byte(&( buttonsA[ i ] ))),
    1b3e:	0f 2e       	mov	r0, r31
    1b40:	ff ed       	ldi	r31, 0xDF	; 223
    1b42:	8f 2e       	mov	r8, r31
    1b44:	f0 e0       	ldi	r31, 0x00	; 0
    1b46:	9f 2e       	mov	r9, r31
    1b48:	f0 2d       	mov	r31, r0
						pgm_read_byte(&( buttonsD[ i ] )), 	
    1b4a:	0f 2e       	mov	r0, r31
    1b4c:	ff e2       	ldi	r31, 0x2F	; 47
    1b4e:	6f 2e       	mov	r6, r31
    1b50:	f1 e0       	ldi	r31, 0x01	; 1
    1b52:	7f 2e       	mov	r7, r31
    1b54:	f0 2d       	mov	r31, r0
    1b56:	02 c0       	rjmp	.+4      	; 0x1b5c <ProcessOutBuf+0x5a6>
/*--------------------------- Backlight --------------------------------------*/
	//	0-39   111-119

	uint8_t n=0;

	for(uint8_t i = 0; i<120; i++)
    1b58:	1f 5f       	subi	r17, 0xFF	; 255
    1b5a:	0f 5f       	subi	r16, 0xFF	; 255
/*============================================================================*/
/*=========================== BUTTONS ========================================*/
/*============================================================================*/
	for(uint8_t i = 0; i<80; i++)
	{
		while(
    1b5c:	14 30       	cpi	r17, 0x04	; 4
    1b5e:	e1 f3       	breq	.-8      	; 0x1b58 <ProcessOutBuf+0x5a2>
    1b60:	18 30       	cpi	r17, 0x08	; 8
    1b62:	d1 f3       	breq	.-12     	; 0x1b58 <ProcessOutBuf+0x5a2>
    1b64:	18 31       	cpi	r17, 0x18	; 24
    1b66:	c1 f3       	breq	.-16     	; 0x1b58 <ProcessOutBuf+0x5a2>
    1b68:	10 32       	cpi	r17, 0x20	; 32
    1b6a:	b1 f3       	breq	.-20     	; 0x1b58 <ProcessOutBuf+0x5a2>
    1b6c:	13 32       	cpi	r17, 0x23	; 35
    1b6e:	a1 f3       	breq	.-24     	; 0x1b58 <ProcessOutBuf+0x5a2>
    1b70:	15 32       	cpi	r17, 0x25	; 37
    1b72:	91 f3       	breq	.-28     	; 0x1b58 <ProcessOutBuf+0x5a2>
    1b74:	16 32       	cpi	r17, 0x26	; 38
    1b76:	81 f3       	breq	.-32     	; 0x1b58 <ProcessOutBuf+0x5a2>
    1b78:	17 32       	cpi	r17, 0x27	; 39
    1b7a:	71 f3       	breq	.-36     	; 0x1b58 <ProcessOutBuf+0x5a2>
    1b7c:	18 32       	cpi	r17, 0x28	; 40
    1b7e:	61 f3       	breq	.-40     	; 0x1b58 <ProcessOutBuf+0x5a2>
    1b80:	19 32       	cpi	r17, 0x29	; 41
    1b82:	51 f3       	breq	.-44     	; 0x1b58 <ProcessOutBuf+0x5a2>
    1b84:	1c 32       	cpi	r17, 0x2C	; 44
    1b86:	41 f3       	breq	.-48     	; 0x1b58 <ProcessOutBuf+0x5a2>
    1b88:	1d 32       	cpi	r17, 0x2D	; 45
    1b8a:	31 f3       	breq	.-52     	; 0x1b58 <ProcessOutBuf+0x5a2>
    1b8c:	1e 32       	cpi	r17, 0x2E	; 46
    1b8e:	21 f3       	breq	.-56     	; 0x1b58 <ProcessOutBuf+0x5a2>
				i == 41 ||
				i == 44 ||
				i == 45 ||
				i == 46 	) i++;

		if( BitIsReset(IO->lastButtons[i/16], (i%16) ) &&  BitIsSet(IO->buttons[i/16],	(i%16) ) )
    1b90:	81 2f       	mov	r24, r17
    1b92:	82 95       	swap	r24
    1b94:	8f 70       	andi	r24, 0x0F	; 15
    1b96:	c8 2e       	mov	r12, r24
    1b98:	dd 24       	eor	r13, r13
    1b9a:	81 2f       	mov	r24, r17
    1b9c:	8f 70       	andi	r24, 0x0F	; 15
    1b9e:	25 01       	movw	r4, r10
    1ba0:	02 c0       	rjmp	.+4      	; 0x1ba6 <ProcessOutBuf+0x5f0>
    1ba2:	44 0c       	add	r4, r4
    1ba4:	55 1c       	adc	r5, r5
    1ba6:	8a 95       	dec	r24
    1ba8:	e2 f7       	brpl	.-8      	; 0x1ba2 <ProcessOutBuf+0x5ec>
    1baa:	c6 01       	movw	r24, r12
    1bac:	cd 96       	adiw	r24, 0x3d	; 61
    1bae:	88 0f       	add	r24, r24
    1bb0:	99 1f       	adc	r25, r25
    1bb2:	f7 01       	movw	r30, r14
    1bb4:	e8 0f       	add	r30, r24
    1bb6:	f9 1f       	adc	r31, r25
    1bb8:	80 81       	ld	r24, Z
    1bba:	91 81       	ldd	r25, Z+1	; 0x01
    1bbc:	84 21       	and	r24, r4
    1bbe:	95 21       	and	r25, r5
    1bc0:	89 2b       	or	r24, r25
    1bc2:	61 f5       	brne	.+88     	; 0x1c1c <ProcessOutBuf+0x666>
    1bc4:	c6 01       	movw	r24, r12
    1bc6:	4d 96       	adiw	r24, 0x1d	; 29
    1bc8:	88 0f       	add	r24, r24
    1bca:	99 1f       	adc	r25, r25
    1bcc:	f7 01       	movw	r30, r14
    1bce:	e8 0f       	add	r30, r24
    1bd0:	f9 1f       	adc	r31, r25
    1bd2:	80 81       	ld	r24, Z
    1bd4:	91 81       	ldd	r25, Z+1	; 0x01
    1bd6:	84 21       	and	r24, r4
    1bd8:	95 21       	and	r25, r5
    1bda:	89 2b       	or	r24, r25
    1bdc:	09 f4       	brne	.+2      	; 0x1be0 <ProcessOutBuf+0x62a>
    1bde:	3c c0       	rjmp	.+120    	; 0x1c58 <ProcessOutBuf+0x6a2>
		{	//event: button on			
			MidiAddMsg(	0x90 + (0x0F & pgm_read_byte(&( buttonsA[ i ] ))),
    1be0:	81 2f       	mov	r24, r17
    1be2:	90 e0       	ldi	r25, 0x00	; 0
    1be4:	f4 01       	movw	r30, r8
    1be6:	e8 0f       	add	r30, r24
    1be8:	f9 1f       	adc	r31, r25
    1bea:	24 91       	lpm	r18, Z+
						pgm_read_byte(&( buttonsD[ i ] )), 	
    1bec:	86 0d       	add	r24, r6
    1bee:	97 1d       	adc	r25, r7
    1bf0:	fc 01       	movw	r30, r24
    1bf2:	64 91       	lpm	r22, Z+
				i == 45 ||
				i == 46 	) i++;

		if( BitIsReset(IO->lastButtons[i/16], (i%16) ) &&  BitIsSet(IO->buttons[i/16],	(i%16) ) )
		{	//event: button on			
			MidiAddMsg(	0x90 + (0x0F & pgm_read_byte(&( buttonsA[ i ] ))),
    1bf4:	e2 2f       	mov	r30, r18
    1bf6:	ef 70       	andi	r30, 0x0F	; 15
    1bf8:	8e 2f       	mov	r24, r30
    1bfa:	80 57       	subi	r24, 0x70	; 112
    1bfc:	4f e7       	ldi	r20, 0x7F	; 127
    1bfe:	0e 94 5f 01 	call	0x2be	; 0x2be <MidiAddMsg>
						pgm_read_byte(&( buttonsD[ i ] )), 	
						MIDI_MAX);

		}

		if( BitIsSet(IO->lastButtons[i/16], (i%16) ) &&  BitIsReset(IO->buttons[i/16],	(i%16) ) )
    1c02:	c6 01       	movw	r24, r12
    1c04:	cd 96       	adiw	r24, 0x3d	; 61
    1c06:	88 0f       	add	r24, r24
    1c08:	99 1f       	adc	r25, r25
    1c0a:	f7 01       	movw	r30, r14
    1c0c:	e8 0f       	add	r30, r24
    1c0e:	f9 1f       	adc	r31, r25
    1c10:	80 81       	ld	r24, Z
    1c12:	91 81       	ldd	r25, Z+1	; 0x01
    1c14:	84 21       	and	r24, r4
    1c16:	95 21       	and	r25, r5
    1c18:	89 2b       	or	r24, r25
    1c1a:	f1 f0       	breq	.+60     	; 0x1c58 <ProcessOutBuf+0x6a2>
    1c1c:	c6 01       	movw	r24, r12
    1c1e:	4d 96       	adiw	r24, 0x1d	; 29
    1c20:	88 0f       	add	r24, r24
    1c22:	99 1f       	adc	r25, r25
    1c24:	f7 01       	movw	r30, r14
    1c26:	e8 0f       	add	r30, r24
    1c28:	f9 1f       	adc	r31, r25
    1c2a:	80 81       	ld	r24, Z
    1c2c:	91 81       	ldd	r25, Z+1	; 0x01
    1c2e:	84 21       	and	r24, r4
    1c30:	95 21       	and	r25, r5
    1c32:	89 2b       	or	r24, r25
    1c34:	89 f4       	brne	.+34     	; 0x1c58 <ProcessOutBuf+0x6a2>
		{	//event: button off
			MidiAddMsg(	0x80 + (0x0F & pgm_read_byte(&( buttonsA[ i ] ))),
    1c36:	81 2f       	mov	r24, r17
    1c38:	90 e0       	ldi	r25, 0x00	; 0
    1c3a:	f4 01       	movw	r30, r8
    1c3c:	e8 0f       	add	r30, r24
    1c3e:	f9 1f       	adc	r31, r25
    1c40:	24 91       	lpm	r18, Z+
						pgm_read_byte(&( buttonsD[ i ] )), 	
    1c42:	86 0d       	add	r24, r6
    1c44:	97 1d       	adc	r25, r7
    1c46:	fc 01       	movw	r30, r24
    1c48:	64 91       	lpm	r22, Z+

		}

		if( BitIsSet(IO->lastButtons[i/16], (i%16) ) &&  BitIsReset(IO->buttons[i/16],	(i%16) ) )
		{	//event: button off
			MidiAddMsg(	0x80 + (0x0F & pgm_read_byte(&( buttonsA[ i ] ))),
    1c4a:	e2 2f       	mov	r30, r18
    1c4c:	ef 70       	andi	r30, 0x0F	; 15
    1c4e:	8e 2f       	mov	r24, r30
    1c50:	80 58       	subi	r24, 0x80	; 128
    1c52:	4f e7       	ldi	r20, 0x7F	; 127
    1c54:	0e 94 5f 01 	call	0x2be	; 0x2be <MidiAddMsg>
	}

/*============================================================================*/
/*=========================== BUTTONS ========================================*/
/*============================================================================*/
	for(uint8_t i = 0; i<80; i++)
    1c58:	00 35       	cpi	r16, 0x50	; 80
    1c5a:	08 f4       	brcc	.+2      	; 0x1c5e <ProcessOutBuf+0x6a8>
    1c5c:	7d cf       	rjmp	.-262    	; 0x1b58 <ProcessOutBuf+0x5a2>
						MIDI_MAX);
		}
	}

	for(uint8_t i=0; i<5;  i++) 
		IO->lastButtons[i] = IO->buttons[i]; 
    1c5e:	f7 01       	movw	r30, r14
    1c60:	e6 58       	subi	r30, 0x86	; 134
    1c62:	ff 4f       	sbci	r31, 0xFF	; 255
    1c64:	d7 01       	movw	r26, r14
    1c66:	da 96       	adiw	r26, 0x3a	; 58
    1c68:	8d 91       	ld	r24, X+
    1c6a:	9c 91       	ld	r25, X
    1c6c:	db 97       	sbiw	r26, 0x3b	; 59
    1c6e:	91 83       	std	Z+1, r25	; 0x01
    1c70:	80 83       	st	Z, r24
    1c72:	f7 01       	movw	r30, r14
    1c74:	e4 58       	subi	r30, 0x84	; 132
    1c76:	ff 4f       	sbci	r31, 0xFF	; 255
    1c78:	dc 96       	adiw	r26, 0x3c	; 60
    1c7a:	8d 91       	ld	r24, X+
    1c7c:	9c 91       	ld	r25, X
    1c7e:	dd 97       	sbiw	r26, 0x3d	; 61
    1c80:	91 83       	std	Z+1, r25	; 0x01
    1c82:	80 83       	st	Z, r24
    1c84:	f7 01       	movw	r30, r14
    1c86:	e2 58       	subi	r30, 0x82	; 130
    1c88:	ff 4f       	sbci	r31, 0xFF	; 255
    1c8a:	de 96       	adiw	r26, 0x3e	; 62
    1c8c:	8d 91       	ld	r24, X+
    1c8e:	9c 91       	ld	r25, X
    1c90:	df 97       	sbiw	r26, 0x3f	; 63
    1c92:	91 83       	std	Z+1, r25	; 0x01
    1c94:	80 83       	st	Z, r24
    1c96:	a0 58       	subi	r26, 0x80	; 128
    1c98:	bf 4f       	sbci	r27, 0xFF	; 255
    1c9a:	f7 01       	movw	r30, r14
    1c9c:	e0 5c       	subi	r30, 0xC0	; 192
    1c9e:	ff 4f       	sbci	r31, 0xFF	; 255
    1ca0:	80 81       	ld	r24, Z
    1ca2:	91 81       	ldd	r25, Z+1	; 0x01
    1ca4:	8d 93       	st	X+, r24
    1ca6:	9c 93       	st	X, r25
    1ca8:	d7 01       	movw	r26, r14
    1caa:	ae 57       	subi	r26, 0x7E	; 126
    1cac:	bf 4f       	sbci	r27, 0xFF	; 255
    1cae:	f7 01       	movw	r30, r14
    1cb0:	ee 5b       	subi	r30, 0xBE	; 190
    1cb2:	ff 4f       	sbci	r31, 0xFF	; 255
    1cb4:	80 81       	ld	r24, Z
    1cb6:	91 81       	ldd	r25, Z+1	; 0x01
    1cb8:	8d 93       	st	X+, r24
    1cba:	9c 93       	st	X, r25

}
    1cbc:	0f 90       	pop	r0
    1cbe:	0f 90       	pop	r0
    1cc0:	0f 90       	pop	r0
    1cc2:	cf 91       	pop	r28
    1cc4:	df 91       	pop	r29
    1cc6:	1f 91       	pop	r17
    1cc8:	0f 91       	pop	r16
    1cca:	ff 90       	pop	r15
    1ccc:	ef 90       	pop	r14
    1cce:	df 90       	pop	r13
    1cd0:	cf 90       	pop	r12
    1cd2:	bf 90       	pop	r11
    1cd4:	af 90       	pop	r10
    1cd6:	9f 90       	pop	r9
    1cd8:	8f 90       	pop	r8
    1cda:	7f 90       	pop	r7
    1cdc:	6f 90       	pop	r6
    1cde:	5f 90       	pop	r5
    1ce0:	4f 90       	pop	r4
    1ce2:	3f 90       	pop	r3
    1ce4:	2f 90       	pop	r2
    1ce6:	08 95       	ret
    1ce8:	70 e0       	ldi	r23, 0x00	; 0
    1cea:	60 e0       	ldi	r22, 0x00	; 0
	uint8_t n=0;

	for(uint8_t i = 0; i<120; i++)
	{
		n++;//0-48
		if(i==40) i=111;
    1cec:	1f e6       	ldi	r17, 0x6F	; 111
			else 		 IO->light[i>>3] &= ~(1<<  (i-(i>>3)*8)   );
		}

		if(A && !B)		IO->light[i>>3] |=  (1<<  (i-(i>>3)*8)   );

		if(!A && !B)	IO->light[i>>3] &= ~(1<<  (i-(i>>3)*8)   );
    1cee:	a1 e0       	ldi	r26, 0x01	; 1
    1cf0:	b0 e0       	ldi	r27, 0x00	; 0
			else 		  IO->light[i>>3] &= ~(1<<  (i-(i>>3)*8)   );
		}

		if(!A && B)
		{	
			if(IO->Blink)IO->light[i>>3] |=  (1<<  (i-(i>>3)*8)   );
    1cf2:	0f 2e       	mov	r0, r31
    1cf4:	f5 e8       	ldi	r31, 0x85	; 133
    1cf6:	af 2e       	mov	r10, r31
    1cf8:	bb 24       	eor	r11, r11
    1cfa:	f0 2d       	mov	r31, r0
    1cfc:	ae 0c       	add	r10, r14
    1cfe:	bf 1c       	adc	r11, r15
		uint8_t A = BitIsSet(IO->lightIN[n>>3], n-(n>>3)*8);
		uint8_t B = BitIsSet(IO->lightFL[n>>3], n-(n>>3)*8);

		if(A && B)
		{
			if(IO->Flash) IO->light[i>>3] |=  (1<<  (i-(i>>3)*8)   );
    1d00:	0f 2e       	mov	r0, r31
    1d02:	f4 e8       	ldi	r31, 0x84	; 132
    1d04:	cf 2e       	mov	r12, r31
    1d06:	dd 24       	eor	r13, r13
    1d08:	f0 2d       	mov	r31, r0
    1d0a:	ce 0c       	add	r12, r14
    1d0c:	df 1c       	adc	r13, r15
    1d0e:	61 ce       	rjmp	.-830    	; 0x19d2 <ProcessOutBuf+0x41c>
	else
	{
		if( br == 0)s2 = 0;
		else 		s2 = pgm_read_byte(&( barMass[ br + 4]	)) - 30;
	}
	IO->light[6] = s1 | s2;
    1d10:	f7 01       	movw	r30, r14
    1d12:	86 83       	std	Z+6, r24	; 0x06


	if( br < 5) 	IO->light[9] = 0;		//4
    1d14:	11 86       	std	Z+9, r1	; 0x09
    1d16:	15 ce       	rjmp	.-982    	; 0x1942 <ProcessOutBuf+0x38c>
		{	
			if(IO->Blink)IO->light[i>>3] |=  (1<<  (i-(i>>3)*8)   );
			else 		 IO->light[i>>3] &= ~(1<<  (i-(i>>3)*8)   );
		}

		if(A && !B)		IO->light[i>>3] |=  (1<<  (i-(i>>3)*8)   );
    1d18:	26 2f       	mov	r18, r22
    1d1a:	26 95       	lsr	r18
    1d1c:	26 95       	lsr	r18
    1d1e:	26 95       	lsr	r18
    1d20:	30 e0       	ldi	r19, 0x00	; 0
    1d22:	f7 01       	movw	r30, r14
    1d24:	e2 0f       	add	r30, r18
    1d26:	f3 1f       	adc	r31, r19
    1d28:	22 0f       	add	r18, r18
    1d2a:	33 1f       	adc	r19, r19
    1d2c:	22 0f       	add	r18, r18
    1d2e:	33 1f       	adc	r19, r19
    1d30:	22 0f       	add	r18, r18
    1d32:	33 1f       	adc	r19, r19
    1d34:	86 2f       	mov	r24, r22
    1d36:	90 e0       	ldi	r25, 0x00	; 0
    1d38:	82 1b       	sub	r24, r18
    1d3a:	93 0b       	sbc	r25, r19
    1d3c:	9d 01       	movw	r18, r26
    1d3e:	02 c0       	rjmp	.+4      	; 0x1d44 <ProcessOutBuf+0x78e>
    1d40:	22 0f       	add	r18, r18
    1d42:	33 1f       	adc	r19, r19
    1d44:	8a 95       	dec	r24
    1d46:	e2 f7       	brpl	.-8      	; 0x1d40 <ProcessOutBuf+0x78a>
    1d48:	c9 01       	movw	r24, r18
    1d4a:	20 81       	ld	r18, Z
    1d4c:	28 2b       	or	r18, r24
    1d4e:	20 83       	st	Z, r18
    1d50:	ed ce       	rjmp	.-550    	; 0x1b2c <ProcessOutBuf+0x576>

		if(!A && !B)	IO->light[i>>3] &= ~(1<<  (i-(i>>3)*8)   );
    1d52:	26 2f       	mov	r18, r22
    1d54:	26 95       	lsr	r18
    1d56:	26 95       	lsr	r18
    1d58:	26 95       	lsr	r18
    1d5a:	30 e0       	ldi	r19, 0x00	; 0
    1d5c:	f7 01       	movw	r30, r14
    1d5e:	e2 0f       	add	r30, r18
    1d60:	f3 1f       	adc	r31, r19
    1d62:	22 0f       	add	r18, r18
    1d64:	33 1f       	adc	r19, r19
    1d66:	22 0f       	add	r18, r18
    1d68:	33 1f       	adc	r19, r19
    1d6a:	22 0f       	add	r18, r18
    1d6c:	33 1f       	adc	r19, r19
    1d6e:	86 2f       	mov	r24, r22
    1d70:	90 e0       	ldi	r25, 0x00	; 0
    1d72:	82 1b       	sub	r24, r18
    1d74:	93 0b       	sbc	r25, r19
    1d76:	9d 01       	movw	r18, r26
    1d78:	02 c0       	rjmp	.+4      	; 0x1d7e <ProcessOutBuf+0x7c8>
    1d7a:	22 0f       	add	r18, r18
    1d7c:	33 1f       	adc	r19, r19
    1d7e:	8a 95       	dec	r24
    1d80:	e2 f7       	brpl	.-8      	; 0x1d7a <ProcessOutBuf+0x7c4>
    1d82:	c9 01       	movw	r24, r18
    1d84:	80 95       	com	r24
    1d86:	20 81       	ld	r18, Z
    1d88:	82 23       	and	r24, r18
    1d8a:	80 83       	st	Z, r24
    1d8c:	cf ce       	rjmp	.-610    	; 0x1b2c <ProcessOutBuf+0x576>

00001d8e <SendFaders>:
/*******************************************************************************
* Function Name  : SendFaders
* Description    : Send values of all faders to initialize the Traktor
*******************************************************************************/
void SendFaders(struct IOtype *IO)
{
    1d8e:	ef 92       	push	r14
    1d90:	ff 92       	push	r15
    1d92:	0f 93       	push	r16
    1d94:	1f 93       	push	r17
    1d96:	cf 93       	push	r28
    1d98:	df 93       	push	r29
    1d9a:	cb ed       	ldi	r28, 0xDB	; 219
    1d9c:	d1 e0       	ldi	r29, 0x01	; 1
    1d9e:	8c 01       	movw	r16, r24
    1da0:	03 5a       	subi	r16, 0xA3	; 163
    1da2:	1f 4f       	sbci	r17, 0xFF	; 255
	for(uint8_t i=0; i<25; i++) 
    1da4:	0f 2e       	mov	r0, r31
    1da6:	fd e0       	ldi	r31, 0x0D	; 13
    1da8:	ef 2e       	mov	r14, r31
    1daa:	f2 e0       	ldi	r31, 0x02	; 2
    1dac:	ff 2e       	mov	r15, r31
    1dae:	f0 2d       	mov	r31, r0
	{ 
		MidiAddMsg(	0xb0 + (0x0F & pgm_read_byte(&( faderMass[ i*2 ] ))),
    1db0:	fe 01       	movw	r30, r28
    1db2:	84 91       	lpm	r24, Z+
					pgm_read_byte(&( faderMass[ i*2+1 ] )), 	
    1db4:	31 96       	adiw	r30, 0x01	; 1
    1db6:	e4 91       	lpm	r30, Z+
*******************************************************************************/
void SendFaders(struct IOtype *IO)
{
	for(uint8_t i=0; i<25; i++) 
	{ 
		MidiAddMsg(	0xb0 + (0x0F & pgm_read_byte(&( faderMass[ i*2 ] ))),
    1db8:	8f 70       	andi	r24, 0x0F	; 15
    1dba:	80 55       	subi	r24, 0x50	; 80
    1dbc:	6e 2f       	mov	r22, r30
    1dbe:	f8 01       	movw	r30, r16
    1dc0:	41 91       	ld	r20, Z+
    1dc2:	8f 01       	movw	r16, r30
    1dc4:	0e 94 5f 01 	call	0x2be	; 0x2be <MidiAddMsg>
    1dc8:	22 96       	adiw	r28, 0x02	; 2
* Function Name  : SendFaders
* Description    : Send values of all faders to initialize the Traktor
*******************************************************************************/
void SendFaders(struct IOtype *IO)
{
	for(uint8_t i=0; i<25; i++) 
    1dca:	ce 15       	cp	r28, r14
    1dcc:	df 05       	cpc	r29, r15
    1dce:	81 f7       	brne	.-32     	; 0x1db0 <SendFaders+0x22>
	{ 
		MidiAddMsg(	0xb0 + (0x0F & pgm_read_byte(&( faderMass[ i*2 ] ))),
					pgm_read_byte(&( faderMass[ i*2+1 ] )), 	
					IO->currFader[i]);
	}
}
    1dd0:	df 91       	pop	r29
    1dd2:	cf 91       	pop	r28
    1dd4:	1f 91       	pop	r17
    1dd6:	0f 91       	pop	r16
    1dd8:	ff 90       	pop	r15
    1dda:	ef 90       	pop	r14
    1ddc:	08 95       	ret

00001dde <__udivmodqi4>:
    1dde:	99 1b       	sub	r25, r25
    1de0:	79 e0       	ldi	r23, 0x09	; 9
    1de2:	04 c0       	rjmp	.+8      	; 0x1dec <__udivmodqi4_ep>

00001de4 <__udivmodqi4_loop>:
    1de4:	99 1f       	adc	r25, r25
    1de6:	96 17       	cp	r25, r22
    1de8:	08 f0       	brcs	.+2      	; 0x1dec <__udivmodqi4_ep>
    1dea:	96 1b       	sub	r25, r22

00001dec <__udivmodqi4_ep>:
    1dec:	88 1f       	adc	r24, r24
    1dee:	7a 95       	dec	r23
    1df0:	c9 f7       	brne	.-14     	; 0x1de4 <__udivmodqi4_loop>
    1df2:	80 95       	com	r24
    1df4:	08 95       	ret

00001df6 <__udivmodhi4>:
    1df6:	aa 1b       	sub	r26, r26
    1df8:	bb 1b       	sub	r27, r27
    1dfa:	51 e1       	ldi	r21, 0x11	; 17
    1dfc:	07 c0       	rjmp	.+14     	; 0x1e0c <__udivmodhi4_ep>

00001dfe <__udivmodhi4_loop>:
    1dfe:	aa 1f       	adc	r26, r26
    1e00:	bb 1f       	adc	r27, r27
    1e02:	a6 17       	cp	r26, r22
    1e04:	b7 07       	cpc	r27, r23
    1e06:	10 f0       	brcs	.+4      	; 0x1e0c <__udivmodhi4_ep>
    1e08:	a6 1b       	sub	r26, r22
    1e0a:	b7 0b       	sbc	r27, r23

00001e0c <__udivmodhi4_ep>:
    1e0c:	88 1f       	adc	r24, r24
    1e0e:	99 1f       	adc	r25, r25
    1e10:	5a 95       	dec	r21
    1e12:	a9 f7       	brne	.-22     	; 0x1dfe <__udivmodhi4_loop>
    1e14:	80 95       	com	r24
    1e16:	90 95       	com	r25
    1e18:	bc 01       	movw	r22, r24
    1e1a:	cd 01       	movw	r24, r26
    1e1c:	08 95       	ret

00001e1e <_exit>:
    1e1e:	f8 94       	cli

00001e20 <__stop_program>:
    1e20:	ff cf       	rjmp	.-2      	; 0x1e20 <__stop_program>
